; ModuleID = '/storage/emulated/0/Download/ultra_num-master/ultra_num-master/ultra_num.cpp.bc'
source_filename = "/storage/emulated/0/Download/ultra_num-master/ultra_num-master/ultra_num.cpp"
target datalayout = "e-m:e-p:32:32-i64:64-v128:64:128-a:0:32-n32-S64"
target triple = "armv4t-unknown-linux-android"

%"class.std::__ccr1::basic_ostream" = type { i32 (...)**, %"class.std::__ccr1::basic_ios" }
%"class.std::__ccr1::basic_ios" = type { %"class.std::__ccr1::ios_base", %"class.std::__ccr1::basic_ostream"*, i32 }
%"class.std::__ccr1::ios_base" = type { i32 (...)**, i32, i32, i32, i32, i32, i8*, i8*, void (i32, %"class.std::__ccr1::ios_base"*, i32)**, i32*, i32, i32, i32*, i32, i32, i8**, i32, i32 }
%"class.std::__ccr1::locale::id" = type { %"struct.std::__ccr1::once_flag", i32 }
%"struct.std::__ccr1::once_flag" = type { i32 }
%"class.std::__ccr1::basic_string" = type { %"class.std::__ccr1::__compressed_pair" }
%"class.std::__ccr1::__compressed_pair" = type { %"struct.std::__ccr1::__compressed_pair_elem" }
%"struct.std::__ccr1::__compressed_pair_elem" = type { %"struct.std::__ccr1::basic_string<char, std::__ccr1::char_traits<char>, std::__ccr1::allocator<char> >::__rep" }
%"struct.std::__ccr1::basic_string<char, std::__ccr1::char_traits<char>, std::__ccr1::allocator<char> >::__rep" = type { %union.anon }
%union.anon = type { %"struct.std::__ccr1::basic_string<char, std::__ccr1::char_traits<char>, std::__ccr1::allocator<char> >::__long" }
%"struct.std::__ccr1::basic_string<char, std::__ccr1::char_traits<char>, std::__ccr1::allocator<char> >::__long" = type { i32, i32, i8* }
%class.ultra_num = type { %"class.std::__ccr1::vector", %"class.std::__ccr1::vector", %"class.std::__ccr1::vector", %"class.std::__ccr1::vector", %"class.std::__ccr1::vector", %"class.std::__ccr1::vector" }
%"class.std::__ccr1::vector" = type { %"class.std::__ccr1::__vector_base" }
%"class.std::__ccr1::__vector_base" = type { i64*, i64*, %"class.std::__ccr1::__compressed_pair.2" }
%"class.std::__ccr1::__compressed_pair.2" = type { %"struct.std::__ccr1::__compressed_pair_elem.3" }
%"struct.std::__ccr1::__compressed_pair_elem.3" = type { i64* }
%"struct.std::__ccr1::basic_string<char, std::__ccr1::char_traits<char>, std::__ccr1::allocator<char> >::__short" = type { %union.anon.0, [11 x i8] }
%union.anon.0 = type { i8 }
%"class.std::__ccr1::queue" = type { %"class.std::__ccr1::deque" }
%"class.std::__ccr1::deque" = type { %"class.std::__ccr1::__deque_base" }
%"class.std::__ccr1::__deque_base" = type { %"struct.std::__ccr1::__split_buffer", i32, %"class.std::__ccr1::__compressed_pair.12" }
%"struct.std::__ccr1::__split_buffer" = type { i8**, i8**, i8**, %"class.std::__ccr1::__compressed_pair.7" }
%"class.std::__ccr1::__compressed_pair.7" = type { %"struct.std::__ccr1::__compressed_pair_elem.8" }
%"struct.std::__ccr1::__compressed_pair_elem.8" = type { i8** }
%"class.std::__ccr1::__compressed_pair.12" = type { %"struct.std::__ccr1::__compressed_pair_elem.13" }
%"struct.std::__ccr1::__compressed_pair_elem.13" = type { i32 }
%"class.std::__ccr1::allocator" = type { i8 }
%"class.std::__ccr1::__basic_string_common" = type { i8 }
%"class.std::__ccr1::vector.33" = type { %"class.std::__ccr1::__vector_base.34" }
%"class.std::__ccr1::__vector_base.34" = type { %"class.std::__ccr1::basic_string"*, %"class.std::__ccr1::basic_string"*, %"class.std::__ccr1::__compressed_pair.35" }
%"class.std::__ccr1::__compressed_pair.35" = type { %"struct.std::__ccr1::__compressed_pair_elem.36" }
%"struct.std::__ccr1::__compressed_pair_elem.36" = type { %"class.std::__ccr1::basic_string"* }
%"class.std::length_error" = type { %"class.std::logic_error" }
%"class.std::logic_error" = type { %"class.std::exception", %"class.std::__ccr1::__libcpp_refstring" }
%"class.std::exception" = type { i32 (...)** }
%"class.std::__ccr1::__libcpp_refstring" = type { i8* }
%"struct.std::__ccr1::__split_buffer.16" = type { i64*, i64*, i64*, %"class.std::__ccr1::__compressed_pair.17" }
%"class.std::__ccr1::__compressed_pair.17" = type { %"struct.std::__ccr1::__compressed_pair_elem.3", %"struct.std::__ccr1::__compressed_pair_elem.18" }
%"struct.std::__ccr1::__compressed_pair_elem.18" = type { %"class.std::__ccr1::allocator.5"* }
%"class.std::__ccr1::allocator.5" = type { i8 }
%"class.std::__ccr1::__vector_base_common" = type { i8 }
%"struct.std::__ccr1::__split_buffer.23" = type { i8**, i8**, i8**, %"class.std::__ccr1::__compressed_pair.24" }
%"class.std::__ccr1::__compressed_pair.24" = type { %"struct.std::__ccr1::__compressed_pair_elem.8", %"struct.std::__ccr1::__compressed_pair_elem.25" }
%"struct.std::__ccr1::__compressed_pair_elem.25" = type { %"class.std::__ccr1::allocator.10"* }
%"class.std::__ccr1::allocator.10" = type { i8 }
%"class.std::__ccr1::locale" = type { %"class.std::__ccr1::locale::__imp"* }
%"class.std::__ccr1::locale::__imp" = type opaque
%"class.std::__ccr1::basic_ostream<char, std::__ccr1::char_traits<char> >::sentry" = type { i8, %"class.std::__ccr1::basic_ostream"* }
%"class.std::__ccr1::locale::facet" = type { %"class.std::__ccr1::__shared_count" }
%"class.std::__ccr1::__shared_count" = type { i32 (...)**, i32 }
%"class.std::__ccr1::ctype" = type <{ %"class.std::__ccr1::locale::facet", i32*, i8, [3 x i8] }>
%"class.std::__ccr1::basic_streambuf" = type { i32 (...)**, %"class.std::__ccr1::locale", i8*, i8*, i8*, i8*, i8*, i8* }
%"struct.std::__ccr1::__split_buffer.41" = type { %"class.std::__ccr1::basic_string"*, %"class.std::__ccr1::basic_string"*, %"class.std::__ccr1::basic_string"*, %"class.std::__ccr1::__compressed_pair.42" }
%"class.std::__ccr1::__compressed_pair.42" = type { %"struct.std::__ccr1::__compressed_pair_elem.36", %"struct.std::__ccr1::__compressed_pair_elem.43" }
%"struct.std::__ccr1::__compressed_pair_elem.43" = type { %"class.std::__ccr1::allocator.38"* }
%"class.std::__ccr1::allocator.38" = type { i8 }

$_ZN9ultra_num4udivENSt6__ccr112basic_stringIcNS0_11char_traitsIcEENS0_9allocatorIcEEEES6_x = comdat any

$__clang_call_terminate = comdat any

$_ZNSt6__ccr1plIcNS_11char_traitsIcEENS_9allocatorIcEEEENS_12basic_stringIT_T0_T1_EERKS9_S6_ = comdat any

$_ZN9ultra_num5ucompENSt6__ccr112basic_stringIcNS0_11char_traitsIcEENS0_9allocatorIcEEEES6_x = comdat any

$_ZN9ultra_num4umulENSt6__ccr112basic_stringIcNS0_11char_traitsIcEENS0_9allocatorIcEEEES6_x = comdat any

$_ZN9ultra_num4usubENSt6__ccr112basic_stringIcNS0_11char_traitsIcEENS0_9allocatorIcEEEES6_x = comdat any

$_ZNSt6__ccr1plIcNS_11char_traitsIcEENS_9allocatorIcEEEENS_12basic_stringIT_T0_T1_EERKS9_SB_ = comdat any

$_ZNSt6__ccr1plIcNS_11char_traitsIcEENS_9allocatorIcEEEENS_12basic_stringIT_T0_T1_EERKS9_PKS6_ = comdat any

$_ZNSt6__ccr114__split_bufferIPcNS_9allocatorIS1_EEED2Ev = comdat any

$_ZN9ultra_num3stvENSt6__ccr112basic_stringIcNS0_11char_traitsIcEENS0_9allocatorIcEEEEx = comdat any

$_ZN9ultra_num4uaddENSt6__ccr112basic_stringIcNS0_11char_traitsIcEENS0_9allocatorIcEEEES6_x = comdat any

$_ZNSt6__ccr16vectorIxNS_9allocatorIxEEE21__push_back_slow_pathIRKxEEvOT_ = comdat any

$_ZNSt6__ccr114__split_bufferIxRNS_9allocatorIxEEEC2EjjS3_ = comdat any

$_ZNSt6__ccr16vectorIxNS_9allocatorIxEEE6insertENS_11__wrap_iterIPKxEEjRS5_ = comdat any

$_ZN9ultra_num3vtsEv = comdat any

$_ZNSt6__ccr16vectorIxNS_9allocatorIxEEE21__push_back_slow_pathIxEEvOT_ = comdat any

$_ZNSt6__ccr16vectorIxNS_9allocatorIxEEE12__move_rangeEPxS4_S4_ = comdat any

$_ZNSt6__ccr16vectorIxNS_9allocatorIxEEE26__swap_out_circular_bufferERNS_14__split_bufferIxRS2_EEPx = comdat any

$_ZNSt6__ccr15dequeIcNS_9allocatorIcEEE9push_backERKc = comdat any

$_ZNSt6__ccr15dequeIcNS_9allocatorIcEEE19__add_back_capacityEv = comdat any

$_ZNSt6__ccr114__split_bufferIPcNS_9allocatorIS1_EEE9push_backEOS1_ = comdat any

$_ZNSt6__ccr114__split_bufferIPcNS_9allocatorIS1_EEE10push_frontEOS1_ = comdat any

$_ZNSt6__ccr114__split_bufferIPcRNS_9allocatorIS1_EEEC2EjjS4_ = comdat any

$_ZNSt6__ccr114__split_bufferIPcRNS_9allocatorIS1_EEE9push_backEOS1_ = comdat any

$_ZNSt6__ccr114__split_bufferIPcRNS_9allocatorIS1_EEE10push_frontERKS1_ = comdat any

$_ZNSt6__ccr124__put_character_sequenceIcNS_11char_traitsIcEEEERNS_13basic_ostreamIT_T0_EES7_PKS4_j = comdat any

$_ZNSt6__ccr116__pad_and_outputIcNS_11char_traitsIcEEEENS_19ostreambuf_iteratorIT_T0_EES6_PKS4_S8_S8_RNS_8ios_baseES4_ = comdat any

$_ZNSt6__ccr113__vector_baseINS_12basic_stringIcNS_11char_traitsIcEENS_9allocatorIcEEEENS4_IS6_EEED2Ev = comdat any

$_ZNSt6__ccr16vectorINS_12basic_stringIcNS_11char_traitsIcEENS_9allocatorIcEEEENS4_IS6_EEE21__push_back_slow_pathIS6_EEvOT_ = comdat any

$_ZNSt6__ccr114__split_bufferINS_12basic_stringIcNS_11char_traitsIcEENS_9allocatorIcEEEERNS4_IS6_EEEC2EjjS8_ = comdat any

$_ZNSt6__ccr114__split_bufferINS_12basic_stringIcNS_11char_traitsIcEENS_9allocatorIcEEEERNS4_IS6_EEED2Ev = comdat any

$_ZN9ultra_num2ncExx = comdat any

$_ZNSt6__ccr16vectorIxNS_9allocatorIxEEEC2ERKS3_ = comdat any

$_ZN9ultra_num4n_1cExx = comdat any

$_ZNSt6__ccr16vectorIxNS_9allocatorIxEEE8allocateEj = comdat any

$_ZNSt6__ccr112__deque_baseIcNS_9allocatorIcEEED2Ev = comdat any

$_ZNSt6__ccr112__deque_baseIcNS_9allocatorIcEEE5clearEv = comdat any

@_ZNSt6__ccr14coutE = external global %"class.std::__ccr1::basic_ostream", align 4 ; [#uses=2 type=%"class.std::__ccr1::basic_ostream"*]
@.str.2 = private unnamed_addr constant [1 x i8] zeroinitializer, align 1 ; [#uses=1 type=[1 x i8]*]
@.str.3 = private unnamed_addr constant [2 x i8] c"0\00", align 1 ; [#uses=1 type=[2 x i8]*]
@.str.4 = private unnamed_addr constant [2 x i8] c"\0A\00", align 1 ; [#uses=1 type=[2 x i8]*]
@.str.6 = private unnamed_addr constant [68 x i8] c"allocator<T>::allocate(size_t n) 'n' exceeds maximum supported size\00", align 1 ; [#uses=1 type=[68 x i8]*]
@_ZTISt12length_error = external constant i8*     ; [#uses=1 type=i8**]
@_ZTVSt12length_error = external unnamed_addr constant { [5 x i8*] }, align 4 ; [#uses=1 type={ [5 x i8*] }*]
@.str.7 = private unnamed_addr constant [2 x i8] c".\00", align 1 ; [#uses=1 type=[2 x i8]*]
@_ZNSt6__ccr15ctypeIcE2idE = external global %"class.std::__ccr1::locale::id", align 4 ; [#uses=1 type=%"class.std::__ccr1::locale::id"*]

; [#uses=0]
; Function Attrs: norecurse optsize
define i32 @main() local_unnamed_addr #0 personality i8* bitcast (i32 (...)* @__gxx_personality_v0 to i8*) {
  %1 = alloca %"class.std::__ccr1::basic_string", align 4 ; [#uses=5 type=%"class.std::__ccr1::basic_string"*]
  %2 = alloca %"class.std::__ccr1::basic_string", align 4 ; [#uses=5 type=%"class.std::__ccr1::basic_string"*]
  %3 = alloca %class.ultra_num, align 4           ; [#uses=26 type=%class.ultra_num*]
  %4 = alloca %"class.std::__ccr1::basic_string", align 4 ; [#uses=5 type=%"class.std::__ccr1::basic_string"*]
  %5 = alloca %"class.std::__ccr1::basic_string", align 4 ; [#uses=6 type=%"class.std::__ccr1::basic_string"*]
  %6 = alloca %"class.std::__ccr1::basic_string", align 4 ; [#uses=6 type=%"class.std::__ccr1::basic_string"*]
  %7 = bitcast %"class.std::__ccr1::basic_string"* %1 to i8* ; [#uses=7 type=i8*]
  call void @llvm.lifetime.start.p0i8(i64 12, i8* nonnull %7) #12
  call void @llvm.memset.p0i8.i32(i8* nonnull %7, i8 0, i32 12, i32 4, i1 false) #12
  store i8 2, i8* %7, align 4, !tbaa !4
  %8 = bitcast %"class.std::__ccr1::basic_string"* %1 to %"struct.std::__ccr1::basic_string<char, std::__ccr1::char_traits<char>, std::__ccr1::allocator<char> >::__short"* ; [#uses=2 type=%"struct.std::__ccr1::basic_string<char, std::__ccr1::char_traits<char>, std::__ccr1::allocator<char> >::__short"*]
  %9 = getelementptr inbounds %"struct.std::__ccr1::basic_string<char, std::__ccr1::char_traits<char>, std::__ccr1::allocator<char> >::__short", %"struct.std::__ccr1::basic_string<char, std::__ccr1::char_traits<char>, std::__ccr1::allocator<char> >::__short"* %8, i32 0, i32 1, i32 0 ; [#uses=1 type=i8*]
  store i8 57, i8* %9, align 1
  %10 = getelementptr inbounds %"struct.std::__ccr1::basic_string<char, std::__ccr1::char_traits<char>, std::__ccr1::allocator<char> >::__short", %"struct.std::__ccr1::basic_string<char, std::__ccr1::char_traits<char>, std::__ccr1::allocator<char> >::__short"* %8, i32 0, i32 1, i32 1 ; [#uses=1 type=i8*]
  store i8 0, i8* %10, align 1, !tbaa !4
  %11 = bitcast %"class.std::__ccr1::basic_string"* %2 to i8* ; [#uses=7 type=i8*]
  call void @llvm.lifetime.start.p0i8(i64 12, i8* nonnull %11) #12
  call void @llvm.memset.p0i8.i32(i8* nonnull %11, i8 0, i32 12, i32 4, i1 false) #12
  store i8 2, i8* %11, align 4, !tbaa !4
  %12 = bitcast %"class.std::__ccr1::basic_string"* %2 to %"struct.std::__ccr1::basic_string<char, std::__ccr1::char_traits<char>, std::__ccr1::allocator<char> >::__short"* ; [#uses=2 type=%"struct.std::__ccr1::basic_string<char, std::__ccr1::char_traits<char>, std::__ccr1::allocator<char> >::__short"*]
  %13 = getelementptr inbounds %"struct.std::__ccr1::basic_string<char, std::__ccr1::char_traits<char>, std::__ccr1::allocator<char> >::__short", %"struct.std::__ccr1::basic_string<char, std::__ccr1::char_traits<char>, std::__ccr1::allocator<char> >::__short"* %12, i32 0, i32 1, i32 0 ; [#uses=1 type=i8*]
  store i8 65, i8* %13, align 1
  %14 = getelementptr inbounds %"struct.std::__ccr1::basic_string<char, std::__ccr1::char_traits<char>, std::__ccr1::allocator<char> >::__short", %"struct.std::__ccr1::basic_string<char, std::__ccr1::char_traits<char>, std::__ccr1::allocator<char> >::__short"* %12, i32 0, i32 1, i32 1 ; [#uses=1 type=i8*]
  store i8 0, i8* %14, align 1, !tbaa !4
  %15 = bitcast %class.ultra_num* %3 to i8*       ; [#uses=4 type=i8*]
  call void @llvm.lifetime.start.p0i8(i64 72, i8* nonnull %15) #12
  call void @llvm.memset.p0i8.i64(i8* nonnull %15, i8 0, i64 72, i32 4, i1 false) #12
  %16 = bitcast %"class.std::__ccr1::basic_string"* %4 to i8* ; [#uses=6 type=i8*]
  call void @llvm.lifetime.start.p0i8(i64 12, i8* nonnull %16) #12
  %17 = invoke %"class.std::__ccr1::basic_string"* @_ZNSt6__ccr112basic_stringIcNS_11char_traitsIcEENS_9allocatorIcEEEC1ERKS5_(%"class.std::__ccr1::basic_string"* nonnull %5, %"class.std::__ccr1::basic_string"* nonnull dereferenceable(12) %1) #13
          to label %18 unwind label %127          ; [#uses=0 type=%"class.std::__ccr1::basic_string"*]

; <label>:18:                                     ; preds = %0
  %19 = invoke %"class.std::__ccr1::basic_string"* @_ZNSt6__ccr112basic_stringIcNS_11char_traitsIcEENS_9allocatorIcEEEC1ERKS5_(%"class.std::__ccr1::basic_string"* nonnull %6, %"class.std::__ccr1::basic_string"* nonnull dereferenceable(12) %2) #13
          to label %20 unwind label %131          ; [#uses=0 type=%"class.std::__ccr1::basic_string"*]

; <label>:20:                                     ; preds = %18
  invoke void @_ZN9ultra_num4udivENSt6__ccr112basic_stringIcNS0_11char_traitsIcEENS0_9allocatorIcEEEES6_x(%"class.std::__ccr1::basic_string"* nonnull sret %4, %class.ultra_num* nonnull %3, %"class.std::__ccr1::basic_string"* nonnull %5, %"class.std::__ccr1::basic_string"* nonnull %6, i64 16) #13
          to label %21 unwind label %135

; <label>:21:                                     ; preds = %20
  %22 = load i8, i8* %16, align 4, !tbaa !4       ; [#uses=2 type=i8]
  %23 = and i8 %22, 1                             ; [#uses=1 type=i8]
  %24 = icmp eq i8 %23, 0                         ; [#uses=2 type=i1]
  %25 = getelementptr inbounds %"class.std::__ccr1::basic_string", %"class.std::__ccr1::basic_string"* %4, i32 0, i32 0, i32 0, i32 0, i32 0, i32 0, i32 2 ; [#uses=3 type=i8**]
  %26 = load i8*, i8** %25, align 4               ; [#uses=1 type=i8*]
  %27 = getelementptr inbounds %"class.std::__ccr1::basic_string", %"class.std::__ccr1::basic_string"* %4, i32 0, i32 0, i32 0, i32 0, i32 0, i32 0, i32 1 ; [#uses=1 type=i32*]
  %28 = load i32, i32* %27, align 4               ; [#uses=1 type=i32]
  %29 = bitcast %"class.std::__ccr1::basic_string"* %4 to %"struct.std::__ccr1::basic_string<char, std::__ccr1::char_traits<char>, std::__ccr1::allocator<char> >::__short"* ; [#uses=1 type=%"struct.std::__ccr1::basic_string<char, std::__ccr1::char_traits<char>, std::__ccr1::allocator<char> >::__short"*]
  %30 = getelementptr inbounds %"struct.std::__ccr1::basic_string<char, std::__ccr1::char_traits<char>, std::__ccr1::allocator<char> >::__short", %"struct.std::__ccr1::basic_string<char, std::__ccr1::char_traits<char>, std::__ccr1::allocator<char> >::__short"* %29, i32 0, i32 1, i32 0 ; [#uses=1 type=i8*]
  %31 = zext i8 %22 to i32                        ; [#uses=1 type=i32]
  %32 = lshr i32 %31, 1                           ; [#uses=1 type=i32]
  %33 = select i1 %24, i8* %30, i8* %26           ; [#uses=1 type=i8*]
  %34 = select i1 %24, i32 %32, i32 %28           ; [#uses=1 type=i32]
  %35 = invoke dereferenceable(84) %"class.std::__ccr1::basic_ostream"* @_ZNSt6__ccr124__put_character_sequenceIcNS_11char_traitsIcEEEERNS_13basic_ostreamIT_T0_EES7_PKS4_j(%"class.std::__ccr1::basic_ostream"* nonnull dereferenceable(84) @_ZNSt6__ccr14coutE, i8* %33, i32 %34) #13
          to label %36 unwind label %139          ; [#uses=0 type=%"class.std::__ccr1::basic_ostream"*]

; <label>:36:                                     ; preds = %21
  %37 = load i8, i8* %16, align 4, !tbaa !4       ; [#uses=1 type=i8]
  %38 = and i8 %37, 1                             ; [#uses=1 type=i8]
  %39 = icmp eq i8 %38, 0                         ; [#uses=1 type=i1]
  br i1 %39, label %42, label %40

; <label>:40:                                     ; preds = %36
  %41 = load i8*, i8** %25, align 4, !tbaa !4     ; [#uses=1 type=i8*]
  call void @_ZdlPv(i8* %41) #14
  br label %42

; <label>:42:                                     ; preds = %36, %40
  %43 = bitcast %"class.std::__ccr1::basic_string"* %6 to i8* ; [#uses=1 type=i8*]
  %44 = load i8, i8* %43, align 4, !tbaa !4       ; [#uses=1 type=i8]
  %45 = and i8 %44, 1                             ; [#uses=1 type=i8]
  %46 = icmp eq i8 %45, 0                         ; [#uses=1 type=i1]
  br i1 %46, label %50, label %47

; <label>:47:                                     ; preds = %42
  %48 = getelementptr inbounds %"class.std::__ccr1::basic_string", %"class.std::__ccr1::basic_string"* %6, i32 0, i32 0, i32 0, i32 0, i32 0, i32 0, i32 2 ; [#uses=1 type=i8**]
  %49 = load i8*, i8** %48, align 4, !tbaa !4     ; [#uses=1 type=i8*]
  call void @_ZdlPv(i8* %49) #14
  br label %50

; <label>:50:                                     ; preds = %42, %47
  %51 = bitcast %"class.std::__ccr1::basic_string"* %5 to i8* ; [#uses=1 type=i8*]
  %52 = load i8, i8* %51, align 4, !tbaa !4       ; [#uses=1 type=i8]
  %53 = and i8 %52, 1                             ; [#uses=1 type=i8]
  %54 = icmp eq i8 %53, 0                         ; [#uses=1 type=i1]
  br i1 %54, label %58, label %55

; <label>:55:                                     ; preds = %50
  %56 = getelementptr inbounds %"class.std::__ccr1::basic_string", %"class.std::__ccr1::basic_string"* %5, i32 0, i32 0, i32 0, i32 0, i32 0, i32 0, i32 2 ; [#uses=1 type=i8**]
  %57 = load i8*, i8** %56, align 4, !tbaa !4     ; [#uses=1 type=i8*]
  call void @_ZdlPv(i8* %57) #14
  br label %58

; <label>:58:                                     ; preds = %50, %55
  call void @llvm.lifetime.end.p0i8(i64 12, i8* nonnull %16) #12
  %59 = getelementptr inbounds %class.ultra_num, %class.ultra_num* %3, i32 0, i32 5, i32 0, i32 0 ; [#uses=1 type=i64**]
  %60 = load i64*, i64** %59, align 4, !tbaa !7   ; [#uses=3 type=i64*]
  %61 = icmp eq i64* %60, null                    ; [#uses=1 type=i1]
  br i1 %61, label %67, label %62

; <label>:62:                                     ; preds = %58
  %63 = ptrtoint i64* %60 to i32                  ; [#uses=1 type=i32]
  %64 = getelementptr inbounds %class.ultra_num, %class.ultra_num* %3, i32 0, i32 5, i32 0, i32 1 ; [#uses=1 type=i64**]
  %65 = bitcast i64** %64 to i32*                 ; [#uses=1 type=i32*]
  store i32 %63, i32* %65, align 4, !tbaa !11
  %66 = bitcast i64* %60 to i8*                   ; [#uses=1 type=i8*]
  call void @_ZdlPv(i8* %66) #14
  br label %67

; <label>:67:                                     ; preds = %62, %58
  %68 = getelementptr inbounds %class.ultra_num, %class.ultra_num* %3, i32 0, i32 4, i32 0, i32 0 ; [#uses=1 type=i64**]
  %69 = load i64*, i64** %68, align 4, !tbaa !7   ; [#uses=3 type=i64*]
  %70 = icmp eq i64* %69, null                    ; [#uses=1 type=i1]
  br i1 %70, label %76, label %71

; <label>:71:                                     ; preds = %67
  %72 = ptrtoint i64* %69 to i32                  ; [#uses=1 type=i32]
  %73 = getelementptr inbounds %class.ultra_num, %class.ultra_num* %3, i32 0, i32 4, i32 0, i32 1 ; [#uses=1 type=i64**]
  %74 = bitcast i64** %73 to i32*                 ; [#uses=1 type=i32*]
  store i32 %72, i32* %74, align 4, !tbaa !11
  %75 = bitcast i64* %69 to i8*                   ; [#uses=1 type=i8*]
  call void @_ZdlPv(i8* %75) #14
  br label %76

; <label>:76:                                     ; preds = %71, %67
  %77 = getelementptr inbounds %class.ultra_num, %class.ultra_num* %3, i32 0, i32 3, i32 0, i32 0 ; [#uses=1 type=i64**]
  %78 = load i64*, i64** %77, align 4, !tbaa !7   ; [#uses=3 type=i64*]
  %79 = icmp eq i64* %78, null                    ; [#uses=1 type=i1]
  br i1 %79, label %85, label %80

; <label>:80:                                     ; preds = %76
  %81 = ptrtoint i64* %78 to i32                  ; [#uses=1 type=i32]
  %82 = getelementptr inbounds %class.ultra_num, %class.ultra_num* %3, i32 0, i32 3, i32 0, i32 1 ; [#uses=1 type=i64**]
  %83 = bitcast i64** %82 to i32*                 ; [#uses=1 type=i32*]
  store i32 %81, i32* %83, align 4, !tbaa !11
  %84 = bitcast i64* %78 to i8*                   ; [#uses=1 type=i8*]
  call void @_ZdlPv(i8* %84) #14
  br label %85

; <label>:85:                                     ; preds = %80, %76
  %86 = getelementptr inbounds %class.ultra_num, %class.ultra_num* %3, i32 0, i32 2, i32 0, i32 0 ; [#uses=1 type=i64**]
  %87 = load i64*, i64** %86, align 4, !tbaa !7   ; [#uses=3 type=i64*]
  %88 = icmp eq i64* %87, null                    ; [#uses=1 type=i1]
  br i1 %88, label %94, label %89

; <label>:89:                                     ; preds = %85
  %90 = ptrtoint i64* %87 to i32                  ; [#uses=1 type=i32]
  %91 = getelementptr inbounds %class.ultra_num, %class.ultra_num* %3, i32 0, i32 2, i32 0, i32 1 ; [#uses=1 type=i64**]
  %92 = bitcast i64** %91 to i32*                 ; [#uses=1 type=i32*]
  store i32 %90, i32* %92, align 4, !tbaa !11
  %93 = bitcast i64* %87 to i8*                   ; [#uses=1 type=i8*]
  call void @_ZdlPv(i8* %93) #14
  br label %94

; <label>:94:                                     ; preds = %89, %85
  %95 = getelementptr inbounds %class.ultra_num, %class.ultra_num* %3, i32 0, i32 1, i32 0, i32 0 ; [#uses=1 type=i64**]
  %96 = load i64*, i64** %95, align 4, !tbaa !7   ; [#uses=3 type=i64*]
  %97 = icmp eq i64* %96, null                    ; [#uses=1 type=i1]
  br i1 %97, label %103, label %98

; <label>:98:                                     ; preds = %94
  %99 = ptrtoint i64* %96 to i32                  ; [#uses=1 type=i32]
  %100 = getelementptr inbounds %class.ultra_num, %class.ultra_num* %3, i32 0, i32 1, i32 0, i32 1 ; [#uses=1 type=i64**]
  %101 = bitcast i64** %100 to i32*               ; [#uses=1 type=i32*]
  store i32 %99, i32* %101, align 4, !tbaa !11
  %102 = bitcast i64* %96 to i8*                  ; [#uses=1 type=i8*]
  call void @_ZdlPv(i8* %102) #14
  br label %103

; <label>:103:                                    ; preds = %98, %94
  %104 = getelementptr inbounds %class.ultra_num, %class.ultra_num* %3, i32 0, i32 0, i32 0, i32 0 ; [#uses=1 type=i64**]
  %105 = load i64*, i64** %104, align 4, !tbaa !7 ; [#uses=3 type=i64*]
  %106 = icmp eq i64* %105, null                  ; [#uses=1 type=i1]
  br i1 %106, label %112, label %107

; <label>:107:                                    ; preds = %103
  %108 = ptrtoint i64* %105 to i32                ; [#uses=1 type=i32]
  %109 = getelementptr inbounds %class.ultra_num, %class.ultra_num* %3, i32 0, i32 0, i32 0, i32 1 ; [#uses=1 type=i64**]
  %110 = bitcast i64** %109 to i32*               ; [#uses=1 type=i32*]
  store i32 %108, i32* %110, align 4, !tbaa !11
  %111 = bitcast i64* %105 to i8*                 ; [#uses=1 type=i8*]
  call void @_ZdlPv(i8* %111) #14
  br label %112

; <label>:112:                                    ; preds = %103, %107
  call void @llvm.lifetime.end.p0i8(i64 72, i8* nonnull %15) #12
  %113 = load i8, i8* %11, align 4, !tbaa !4      ; [#uses=1 type=i8]
  %114 = and i8 %113, 1                           ; [#uses=1 type=i8]
  %115 = icmp eq i8 %114, 0                       ; [#uses=1 type=i1]
  br i1 %115, label %119, label %116

; <label>:116:                                    ; preds = %112
  %117 = getelementptr inbounds %"class.std::__ccr1::basic_string", %"class.std::__ccr1::basic_string"* %2, i32 0, i32 0, i32 0, i32 0, i32 0, i32 0, i32 2 ; [#uses=1 type=i8**]
  %118 = load i8*, i8** %117, align 4, !tbaa !4   ; [#uses=1 type=i8*]
  call void @_ZdlPv(i8* %118) #14
  br label %119

; <label>:119:                                    ; preds = %112, %116
  call void @llvm.lifetime.end.p0i8(i64 12, i8* nonnull %11) #12
  %120 = load i8, i8* %7, align 4, !tbaa !4       ; [#uses=1 type=i8]
  %121 = and i8 %120, 1                           ; [#uses=1 type=i8]
  %122 = icmp eq i8 %121, 0                       ; [#uses=1 type=i1]
  br i1 %122, label %126, label %123

; <label>:123:                                    ; preds = %119
  %124 = getelementptr inbounds %"class.std::__ccr1::basic_string", %"class.std::__ccr1::basic_string"* %1, i32 0, i32 0, i32 0, i32 0, i32 0, i32 0, i32 2 ; [#uses=1 type=i8**]
  %125 = load i8*, i8** %124, align 4, !tbaa !4   ; [#uses=1 type=i8*]
  call void @_ZdlPv(i8* %125) #14
  br label %126

; <label>:126:                                    ; preds = %119, %123
  call void @llvm.lifetime.end.p0i8(i64 12, i8* nonnull %7) #12
  ret i32 0

; <label>:127:                                    ; preds = %0
  %128 = landingpad { i8*, i32 }
          cleanup                                 ; [#uses=2 type={ i8*, i32 }]
  %129 = extractvalue { i8*, i32 } %128, 0        ; [#uses=1 type=i8*]
  %130 = extractvalue { i8*, i32 } %128, 1        ; [#uses=1 type=i32]
  br label %168

; <label>:131:                                    ; preds = %18
  %132 = landingpad { i8*, i32 }
          cleanup                                 ; [#uses=2 type={ i8*, i32 }]
  %133 = extractvalue { i8*, i32 } %132, 0        ; [#uses=1 type=i8*]
  %134 = extractvalue { i8*, i32 } %132, 1        ; [#uses=1 type=i32]
  br label %158

; <label>:135:                                    ; preds = %20
  %136 = landingpad { i8*, i32 }
          cleanup                                 ; [#uses=2 type={ i8*, i32 }]
  %137 = extractvalue { i8*, i32 } %136, 0        ; [#uses=1 type=i8*]
  %138 = extractvalue { i8*, i32 } %136, 1        ; [#uses=1 type=i32]
  br label %148

; <label>:139:                                    ; preds = %21
  %140 = landingpad { i8*, i32 }
          cleanup                                 ; [#uses=2 type={ i8*, i32 }]
  %141 = extractvalue { i8*, i32 } %140, 0        ; [#uses=2 type=i8*]
  %142 = extractvalue { i8*, i32 } %140, 1        ; [#uses=2 type=i32]
  %143 = load i8, i8* %16, align 4, !tbaa !4      ; [#uses=1 type=i8]
  %144 = and i8 %143, 1                           ; [#uses=1 type=i8]
  %145 = icmp eq i8 %144, 0                       ; [#uses=1 type=i1]
  br i1 %145, label %148, label %146

; <label>:146:                                    ; preds = %139
  %147 = load i8*, i8** %25, align 4, !tbaa !4    ; [#uses=1 type=i8*]
  call void @_ZdlPv(i8* %147) #14
  br label %148

; <label>:148:                                    ; preds = %146, %139, %135
  %149 = phi i8* [ %137, %135 ], [ %141, %139 ], [ %141, %146 ] ; [#uses=2 type=i8*]
  %150 = phi i32 [ %138, %135 ], [ %142, %139 ], [ %142, %146 ] ; [#uses=2 type=i32]
  %151 = bitcast %"class.std::__ccr1::basic_string"* %6 to i8* ; [#uses=1 type=i8*]
  %152 = load i8, i8* %151, align 4, !tbaa !4     ; [#uses=1 type=i8]
  %153 = and i8 %152, 1                           ; [#uses=1 type=i8]
  %154 = icmp eq i8 %153, 0                       ; [#uses=1 type=i1]
  br i1 %154, label %158, label %155

; <label>:155:                                    ; preds = %148
  %156 = getelementptr inbounds %"class.std::__ccr1::basic_string", %"class.std::__ccr1::basic_string"* %6, i32 0, i32 0, i32 0, i32 0, i32 0, i32 0, i32 2 ; [#uses=1 type=i8**]
  %157 = load i8*, i8** %156, align 4, !tbaa !4   ; [#uses=1 type=i8*]
  call void @_ZdlPv(i8* %157) #14
  br label %158

; <label>:158:                                    ; preds = %155, %148, %131
  %159 = phi i8* [ %133, %131 ], [ %149, %148 ], [ %149, %155 ] ; [#uses=2 type=i8*]
  %160 = phi i32 [ %134, %131 ], [ %150, %148 ], [ %150, %155 ] ; [#uses=2 type=i32]
  %161 = bitcast %"class.std::__ccr1::basic_string"* %5 to i8* ; [#uses=1 type=i8*]
  %162 = load i8, i8* %161, align 4, !tbaa !4     ; [#uses=1 type=i8]
  %163 = and i8 %162, 1                           ; [#uses=1 type=i8]
  %164 = icmp eq i8 %163, 0                       ; [#uses=1 type=i1]
  br i1 %164, label %168, label %165

; <label>:165:                                    ; preds = %158
  %166 = getelementptr inbounds %"class.std::__ccr1::basic_string", %"class.std::__ccr1::basic_string"* %5, i32 0, i32 0, i32 0, i32 0, i32 0, i32 0, i32 2 ; [#uses=1 type=i8**]
  %167 = load i8*, i8** %166, align 4, !tbaa !4   ; [#uses=1 type=i8*]
  call void @_ZdlPv(i8* %167) #14
  br label %168

; <label>:168:                                    ; preds = %165, %158, %127
  %169 = phi i8* [ %129, %127 ], [ %159, %158 ], [ %159, %165 ] ; [#uses=1 type=i8*]
  %170 = phi i32 [ %130, %127 ], [ %160, %158 ], [ %160, %165 ] ; [#uses=1 type=i32]
  call void @llvm.lifetime.end.p0i8(i64 12, i8* nonnull %16) #12
  %171 = getelementptr inbounds %class.ultra_num, %class.ultra_num* %3, i32 0, i32 5, i32 0, i32 0 ; [#uses=1 type=i64**]
  %172 = load i64*, i64** %171, align 4, !tbaa !7 ; [#uses=3 type=i64*]
  %173 = icmp eq i64* %172, null                  ; [#uses=1 type=i1]
  br i1 %173, label %179, label %174

; <label>:174:                                    ; preds = %168
  %175 = ptrtoint i64* %172 to i32                ; [#uses=1 type=i32]
  %176 = getelementptr inbounds %class.ultra_num, %class.ultra_num* %3, i32 0, i32 5, i32 0, i32 1 ; [#uses=1 type=i64**]
  %177 = bitcast i64** %176 to i32*               ; [#uses=1 type=i32*]
  store i32 %175, i32* %177, align 4, !tbaa !11
  %178 = bitcast i64* %172 to i8*                 ; [#uses=1 type=i8*]
  call void @_ZdlPv(i8* %178) #14
  br label %179

; <label>:179:                                    ; preds = %174, %168
  %180 = getelementptr inbounds %class.ultra_num, %class.ultra_num* %3, i32 0, i32 4, i32 0, i32 0 ; [#uses=1 type=i64**]
  %181 = load i64*, i64** %180, align 4, !tbaa !7 ; [#uses=3 type=i64*]
  %182 = icmp eq i64* %181, null                  ; [#uses=1 type=i1]
  br i1 %182, label %188, label %183

; <label>:183:                                    ; preds = %179
  %184 = ptrtoint i64* %181 to i32                ; [#uses=1 type=i32]
  %185 = getelementptr inbounds %class.ultra_num, %class.ultra_num* %3, i32 0, i32 4, i32 0, i32 1 ; [#uses=1 type=i64**]
  %186 = bitcast i64** %185 to i32*               ; [#uses=1 type=i32*]
  store i32 %184, i32* %186, align 4, !tbaa !11
  %187 = bitcast i64* %181 to i8*                 ; [#uses=1 type=i8*]
  call void @_ZdlPv(i8* %187) #14
  br label %188

; <label>:188:                                    ; preds = %183, %179
  %189 = getelementptr inbounds %class.ultra_num, %class.ultra_num* %3, i32 0, i32 3, i32 0, i32 0 ; [#uses=1 type=i64**]
  %190 = load i64*, i64** %189, align 4, !tbaa !7 ; [#uses=3 type=i64*]
  %191 = icmp eq i64* %190, null                  ; [#uses=1 type=i1]
  br i1 %191, label %197, label %192

; <label>:192:                                    ; preds = %188
  %193 = ptrtoint i64* %190 to i32                ; [#uses=1 type=i32]
  %194 = getelementptr inbounds %class.ultra_num, %class.ultra_num* %3, i32 0, i32 3, i32 0, i32 1 ; [#uses=1 type=i64**]
  %195 = bitcast i64** %194 to i32*               ; [#uses=1 type=i32*]
  store i32 %193, i32* %195, align 4, !tbaa !11
  %196 = bitcast i64* %190 to i8*                 ; [#uses=1 type=i8*]
  call void @_ZdlPv(i8* %196) #14
  br label %197

; <label>:197:                                    ; preds = %192, %188
  %198 = getelementptr inbounds %class.ultra_num, %class.ultra_num* %3, i32 0, i32 2, i32 0, i32 0 ; [#uses=1 type=i64**]
  %199 = load i64*, i64** %198, align 4, !tbaa !7 ; [#uses=3 type=i64*]
  %200 = icmp eq i64* %199, null                  ; [#uses=1 type=i1]
  br i1 %200, label %206, label %201

; <label>:201:                                    ; preds = %197
  %202 = ptrtoint i64* %199 to i32                ; [#uses=1 type=i32]
  %203 = getelementptr inbounds %class.ultra_num, %class.ultra_num* %3, i32 0, i32 2, i32 0, i32 1 ; [#uses=1 type=i64**]
  %204 = bitcast i64** %203 to i32*               ; [#uses=1 type=i32*]
  store i32 %202, i32* %204, align 4, !tbaa !11
  %205 = bitcast i64* %199 to i8*                 ; [#uses=1 type=i8*]
  call void @_ZdlPv(i8* %205) #14
  br label %206

; <label>:206:                                    ; preds = %201, %197
  %207 = getelementptr inbounds %class.ultra_num, %class.ultra_num* %3, i32 0, i32 1, i32 0, i32 0 ; [#uses=1 type=i64**]
  %208 = load i64*, i64** %207, align 4, !tbaa !7 ; [#uses=3 type=i64*]
  %209 = icmp eq i64* %208, null                  ; [#uses=1 type=i1]
  br i1 %209, label %215, label %210

; <label>:210:                                    ; preds = %206
  %211 = ptrtoint i64* %208 to i32                ; [#uses=1 type=i32]
  %212 = getelementptr inbounds %class.ultra_num, %class.ultra_num* %3, i32 0, i32 1, i32 0, i32 1 ; [#uses=1 type=i64**]
  %213 = bitcast i64** %212 to i32*               ; [#uses=1 type=i32*]
  store i32 %211, i32* %213, align 4, !tbaa !11
  %214 = bitcast i64* %208 to i8*                 ; [#uses=1 type=i8*]
  call void @_ZdlPv(i8* %214) #14
  br label %215

; <label>:215:                                    ; preds = %210, %206
  %216 = getelementptr inbounds %class.ultra_num, %class.ultra_num* %3, i32 0, i32 0, i32 0, i32 0 ; [#uses=1 type=i64**]
  %217 = load i64*, i64** %216, align 4, !tbaa !7 ; [#uses=3 type=i64*]
  %218 = icmp eq i64* %217, null                  ; [#uses=1 type=i1]
  br i1 %218, label %224, label %219

; <label>:219:                                    ; preds = %215
  %220 = ptrtoint i64* %217 to i32                ; [#uses=1 type=i32]
  %221 = getelementptr inbounds %class.ultra_num, %class.ultra_num* %3, i32 0, i32 0, i32 0, i32 1 ; [#uses=1 type=i64**]
  %222 = bitcast i64** %221 to i32*               ; [#uses=1 type=i32*]
  store i32 %220, i32* %222, align 4, !tbaa !11
  %223 = bitcast i64* %217 to i8*                 ; [#uses=1 type=i8*]
  call void @_ZdlPv(i8* %223) #14
  br label %224

; <label>:224:                                    ; preds = %215, %219
  call void @llvm.lifetime.end.p0i8(i64 72, i8* nonnull %15) #12
  %225 = load i8, i8* %11, align 4, !tbaa !4      ; [#uses=1 type=i8]
  %226 = and i8 %225, 1                           ; [#uses=1 type=i8]
  %227 = icmp eq i8 %226, 0                       ; [#uses=1 type=i1]
  br i1 %227, label %231, label %228

; <label>:228:                                    ; preds = %224
  %229 = getelementptr inbounds %"class.std::__ccr1::basic_string", %"class.std::__ccr1::basic_string"* %2, i32 0, i32 0, i32 0, i32 0, i32 0, i32 0, i32 2 ; [#uses=1 type=i8**]
  %230 = load i8*, i8** %229, align 4, !tbaa !4   ; [#uses=1 type=i8*]
  call void @_ZdlPv(i8* %230) #14
  br label %231

; <label>:231:                                    ; preds = %228, %224
  call void @llvm.lifetime.end.p0i8(i64 12, i8* nonnull %11) #12
  %232 = load i8, i8* %7, align 4, !tbaa !4       ; [#uses=1 type=i8]
  %233 = and i8 %232, 1                           ; [#uses=1 type=i8]
  %234 = icmp eq i8 %233, 0                       ; [#uses=1 type=i1]
  br i1 %234, label %238, label %235

; <label>:235:                                    ; preds = %231
  %236 = getelementptr inbounds %"class.std::__ccr1::basic_string", %"class.std::__ccr1::basic_string"* %1, i32 0, i32 0, i32 0, i32 0, i32 0, i32 0, i32 2 ; [#uses=1 type=i8**]
  %237 = load i8*, i8** %236, align 4, !tbaa !4   ; [#uses=1 type=i8*]
  call void @_ZdlPv(i8* %237) #14
  br label %238

; <label>:238:                                    ; preds = %231, %235
  call void @llvm.lifetime.end.p0i8(i64 12, i8* nonnull %7) #12
  %239 = insertvalue { i8*, i32 } undef, i8* %169, 0 ; [#uses=1 type={ i8*, i32 }]
  %240 = insertvalue { i8*, i32 } %239, i32 %170, 1 ; [#uses=1 type={ i8*, i32 }]
  resume { i8*, i32 } %240
}

; [#uses=98]
; Function Attrs: argmemonly nounwind
declare void @llvm.lifetime.start.p0i8(i64, i8* nocapture) #1

; [#uses=9]
declare i32 @__gxx_personality_v0(...)

; [#uses=1]
; Function Attrs: optsize
define linkonce_odr void @_ZN9ultra_num4udivENSt6__ccr112basic_stringIcNS0_11char_traitsIcEENS0_9allocatorIcEEEES6_x(%"class.std::__ccr1::basic_string"* noalias sret, %class.ultra_num*, %"class.std::__ccr1::basic_string"*, %"class.std::__ccr1::basic_string"*, i64) local_unnamed_addr #2 comdat align 2 personality i8* bitcast (i32 (...)* @__gxx_personality_v0 to i8*) {
  %6 = alloca %"class.std::__ccr1::queue", align 4 ; [#uses=7 type=%"class.std::__ccr1::queue"*]
  %7 = alloca %"class.std::__ccr1::basic_string", align 4 ; [#uses=4 type=%"class.std::__ccr1::basic_string"*]
  %8 = alloca %"class.std::__ccr1::basic_string", align 4 ; [#uses=17 type=%"class.std::__ccr1::basic_string"*]
  %9 = alloca %"class.std::__ccr1::basic_string", align 4 ; [#uses=10 type=%"class.std::__ccr1::basic_string"*]
  %10 = alloca %"class.std::__ccr1::basic_string", align 4 ; [#uses=2 type=%"class.std::__ccr1::basic_string"*]
  %11 = alloca %"class.std::__ccr1::basic_string", align 4 ; [#uses=11 type=%"class.std::__ccr1::basic_string"*]
  %12 = alloca %"class.std::__ccr1::basic_string", align 4 ; [#uses=2 type=%"class.std::__ccr1::basic_string"*]
  %13 = alloca %"class.std::__ccr1::basic_string", align 4 ; [#uses=6 type=%"class.std::__ccr1::basic_string"*]
  %14 = alloca %"class.std::__ccr1::basic_string", align 4 ; [#uses=6 type=%"class.std::__ccr1::basic_string"*]
  %15 = alloca %"class.std::__ccr1::basic_string", align 4 ; [#uses=2 type=%"class.std::__ccr1::basic_string"*]
  %16 = alloca %"class.std::__ccr1::basic_string", align 4 ; [#uses=4 type=%"class.std::__ccr1::basic_string"*]
  %17 = alloca %"class.std::__ccr1::basic_string", align 4 ; [#uses=4 type=%"class.std::__ccr1::basic_string"*]
  %18 = alloca %"class.std::__ccr1::basic_string", align 4 ; [#uses=4 type=%"class.std::__ccr1::basic_string"*]
  %19 = alloca %"class.std::__ccr1::basic_string", align 4 ; [#uses=4 type=%"class.std::__ccr1::basic_string"*]
  %20 = alloca %"class.std::__ccr1::basic_string", align 4 ; [#uses=12 type=%"class.std::__ccr1::basic_string"*]
  %21 = alloca %"class.std::__ccr1::basic_string", align 4 ; [#uses=6 type=%"class.std::__ccr1::basic_string"*]
  %22 = alloca %"class.std::__ccr1::basic_string", align 4 ; [#uses=2 type=%"class.std::__ccr1::basic_string"*]
  %23 = alloca %"class.std::__ccr1::basic_string", align 4 ; [#uses=5 type=%"class.std::__ccr1::basic_string"*]
  %24 = alloca %"class.std::__ccr1::basic_string", align 4 ; [#uses=4 type=%"class.std::__ccr1::basic_string"*]
  %25 = alloca %"class.std::__ccr1::basic_string", align 4 ; [#uses=4 type=%"class.std::__ccr1::basic_string"*]
  %26 = alloca %"class.std::__ccr1::basic_string", align 4 ; [#uses=4 type=%"class.std::__ccr1::basic_string"*]
  %27 = alloca %"class.std::__ccr1::basic_string", align 4 ; [#uses=4 type=%"class.std::__ccr1::basic_string"*]
  %28 = alloca %"class.std::__ccr1::basic_string", align 4 ; [#uses=4 type=%"class.std::__ccr1::basic_string"*]
  %29 = alloca %"class.std::__ccr1::basic_string", align 4 ; [#uses=4 type=%"class.std::__ccr1::basic_string"*]
  %30 = alloca %"class.std::__ccr1::basic_string", align 4 ; [#uses=2 type=%"class.std::__ccr1::basic_string"*]
  %31 = alloca %"class.std::__ccr1::basic_string", align 4 ; [#uses=2 type=%"class.std::__ccr1::basic_string"*]
  %32 = alloca %"class.std::__ccr1::basic_string", align 4 ; [#uses=4 type=%"class.std::__ccr1::basic_string"*]
  %33 = alloca %"class.std::__ccr1::basic_string", align 4 ; [#uses=4 type=%"class.std::__ccr1::basic_string"*]
  %34 = alloca %"class.std::__ccr1::basic_string", align 4 ; [#uses=2 type=%"class.std::__ccr1::basic_string"*]
  %35 = alloca %"class.std::__ccr1::basic_string", align 4 ; [#uses=4 type=%"class.std::__ccr1::basic_string"*]
  %36 = alloca %"class.std::__ccr1::basic_string", align 4 ; [#uses=4 type=%"class.std::__ccr1::basic_string"*]
  %37 = alloca %"class.std::__ccr1::basic_string", align 4 ; [#uses=2 type=%"class.std::__ccr1::basic_string"*]
  %38 = alloca %"class.std::__ccr1::basic_string", align 4 ; [#uses=2 type=%"class.std::__ccr1::basic_string"*]
  %39 = alloca %"class.std::__ccr1::basic_string", align 4 ; [#uses=2 type=%"class.std::__ccr1::basic_string"*]
  %40 = alloca %"class.std::__ccr1::basic_string", align 4 ; [#uses=6 type=%"class.std::__ccr1::basic_string"*]
  %41 = alloca %"class.std::__ccr1::basic_string", align 4 ; [#uses=6 type=%"class.std::__ccr1::basic_string"*]
  %42 = alloca %"class.std::__ccr1::basic_string", align 4 ; [#uses=2 type=%"class.std::__ccr1::basic_string"*]
  %43 = alloca %"class.std::__ccr1::basic_string", align 4 ; [#uses=8 type=%"class.std::__ccr1::basic_string"*]
  %44 = getelementptr inbounds %class.ultra_num, %class.ultra_num* %1, i32 0, i32 4 ; [#uses=1 type=%"class.std::__ccr1::vector"*]
  %45 = bitcast %"class.std::__ccr1::vector"* %44 to i32* ; [#uses=1 type=i32*]
  %46 = load i32, i32* %45, align 4, !tbaa !7     ; [#uses=1 type=i32]
  %47 = getelementptr inbounds %class.ultra_num, %class.ultra_num* %1, i32 0, i32 4, i32 0, i32 1 ; [#uses=1 type=i64**]
  %48 = bitcast i64** %47 to i32*                 ; [#uses=1 type=i32*]
  store i32 %46, i32* %48, align 4, !tbaa !11
  %49 = getelementptr inbounds %class.ultra_num, %class.ultra_num* %1, i32 0, i32 5 ; [#uses=1 type=%"class.std::__ccr1::vector"*]
  %50 = bitcast %"class.std::__ccr1::vector"* %49 to i32* ; [#uses=1 type=i32*]
  %51 = load i32, i32* %50, align 4, !tbaa !7     ; [#uses=1 type=i32]
  %52 = getelementptr inbounds %class.ultra_num, %class.ultra_num* %1, i32 0, i32 5, i32 0, i32 1 ; [#uses=1 type=i64**]
  %53 = bitcast i64** %52 to i32*                 ; [#uses=1 type=i32*]
  store i32 %51, i32* %53, align 4, !tbaa !11
  %54 = bitcast %class.ultra_num* %1 to i32*      ; [#uses=1 type=i32*]
  %55 = load i32, i32* %54, align 4, !tbaa !7     ; [#uses=1 type=i32]
  %56 = getelementptr inbounds %class.ultra_num, %class.ultra_num* %1, i32 0, i32 0, i32 0, i32 1 ; [#uses=1 type=i64**]
  %57 = bitcast i64** %56 to i32*                 ; [#uses=1 type=i32*]
  store i32 %55, i32* %57, align 4, !tbaa !11
  %58 = getelementptr inbounds %class.ultra_num, %class.ultra_num* %1, i32 0, i32 1 ; [#uses=1 type=%"class.std::__ccr1::vector"*]
  %59 = bitcast %"class.std::__ccr1::vector"* %58 to i32* ; [#uses=1 type=i32*]
  %60 = load i32, i32* %59, align 4, !tbaa !7     ; [#uses=1 type=i32]
  %61 = getelementptr inbounds %class.ultra_num, %class.ultra_num* %1, i32 0, i32 1, i32 0, i32 1 ; [#uses=1 type=i64**]
  %62 = bitcast i64** %61 to i32*                 ; [#uses=1 type=i32*]
  store i32 %60, i32* %62, align 4, !tbaa !11
  %63 = getelementptr inbounds %class.ultra_num, %class.ultra_num* %1, i32 0, i32 2 ; [#uses=1 type=%"class.std::__ccr1::vector"*]
  %64 = bitcast %"class.std::__ccr1::vector"* %63 to i32* ; [#uses=1 type=i32*]
  %65 = load i32, i32* %64, align 4, !tbaa !7     ; [#uses=1 type=i32]
  %66 = getelementptr inbounds %class.ultra_num, %class.ultra_num* %1, i32 0, i32 2, i32 0, i32 1 ; [#uses=1 type=i64**]
  %67 = bitcast i64** %66 to i32*                 ; [#uses=1 type=i32*]
  store i32 %65, i32* %67, align 4, !tbaa !11
  %68 = getelementptr inbounds %class.ultra_num, %class.ultra_num* %1, i32 0, i32 3 ; [#uses=1 type=%"class.std::__ccr1::vector"*]
  %69 = bitcast %"class.std::__ccr1::vector"* %68 to i32* ; [#uses=1 type=i32*]
  %70 = load i32, i32* %69, align 4, !tbaa !7     ; [#uses=1 type=i32]
  %71 = getelementptr inbounds %class.ultra_num, %class.ultra_num* %1, i32 0, i32 3, i32 0, i32 1 ; [#uses=1 type=i64**]
  %72 = bitcast i64** %71 to i32*                 ; [#uses=1 type=i32*]
  store i32 %70, i32* %72, align 4, !tbaa !11
  %73 = bitcast %"class.std::__ccr1::basic_string"* %2 to i8* ; [#uses=5 type=i8*]
  %74 = load i8, i8* %73, align 4, !tbaa !4       ; [#uses=2 type=i8]
  %75 = and i8 %74, 1                             ; [#uses=1 type=i8]
  %76 = icmp eq i8 %75, 0                         ; [#uses=2 type=i1]
  br i1 %76, label %80, label %77

; <label>:77:                                     ; preds = %5
  %78 = getelementptr inbounds %"class.std::__ccr1::basic_string", %"class.std::__ccr1::basic_string"* %2, i32 0, i32 0, i32 0, i32 0, i32 0, i32 0, i32 1 ; [#uses=1 type=i32*]
  %79 = load i32, i32* %78, align 4, !tbaa !4     ; [#uses=1 type=i32]
  br label %83

; <label>:80:                                     ; preds = %5
  %81 = zext i8 %74 to i32                        ; [#uses=1 type=i32]
  %82 = lshr i32 %81, 1                           ; [#uses=1 type=i32]
  br label %83

; <label>:83:                                     ; preds = %77, %80
  %84 = phi i32 [ %79, %77 ], [ %82, %80 ]        ; [#uses=2 type=i32]
  %85 = zext i32 %84 to i64                       ; [#uses=4 type=i64]
  %86 = bitcast %"class.std::__ccr1::basic_string"* %3 to i8* ; [#uses=3 type=i8*]
  %87 = load i8, i8* %86, align 4, !tbaa !4       ; [#uses=3 type=i8]
  %88 = and i8 %87, 1                             ; [#uses=1 type=i8]
  %89 = icmp eq i8 %88, 0                         ; [#uses=2 type=i1]
  br i1 %89, label %93, label %90

; <label>:90:                                     ; preds = %83
  %91 = getelementptr inbounds %"class.std::__ccr1::basic_string", %"class.std::__ccr1::basic_string"* %3, i32 0, i32 0, i32 0, i32 0, i32 0, i32 0, i32 1 ; [#uses=1 type=i32*]
  %92 = load i32, i32* %91, align 4, !tbaa !4     ; [#uses=1 type=i32]
  br label %96

; <label>:93:                                     ; preds = %83
  %94 = zext i8 %87 to i32                        ; [#uses=1 type=i32]
  %95 = lshr i32 %94, 1                           ; [#uses=1 type=i32]
  br label %96

; <label>:96:                                     ; preds = %90, %93
  %97 = phi i32 [ %92, %90 ], [ %95, %93 ]        ; [#uses=2 type=i32]
  %98 = zext i32 %97 to i64                       ; [#uses=3 type=i64]
  %99 = bitcast %"class.std::__ccr1::queue"* %6 to i8* ; [#uses=4 type=i8*]
  call void @llvm.lifetime.start.p0i8(i64 24, i8* nonnull %99) #12
  call void @llvm.memset.p0i8.i64(i8* nonnull %99, i8 0, i64 24, i32 4, i1 false) #12
  %100 = bitcast %"class.std::__ccr1::basic_string"* %7 to i8* ; [#uses=6 type=i8*]
  call void @llvm.lifetime.start.p0i8(i64 12, i8* nonnull %100) #12
  %101 = bitcast %"class.std::__ccr1::basic_string"* %0 to i8* ; [#uses=13 type=i8*]
  call void @llvm.memset.p0i8.i64(i8* nonnull %100, i8 0, i64 12, i32 4, i1 false)
  %102 = bitcast %"class.std::__ccr1::basic_string"* %0 to %"struct.std::__ccr1::basic_string<char, std::__ccr1::char_traits<char>, std::__ccr1::allocator<char> >::__short"* ; [#uses=1 type=%"struct.std::__ccr1::basic_string<char, std::__ccr1::char_traits<char>, std::__ccr1::allocator<char> >::__short"*]
  %103 = getelementptr inbounds %"struct.std::__ccr1::basic_string<char, std::__ccr1::char_traits<char>, std::__ccr1::allocator<char> >::__short", %"struct.std::__ccr1::basic_string<char, std::__ccr1::char_traits<char>, std::__ccr1::allocator<char> >::__short"* %102, i32 0, i32 1, i32 0 ; [#uses=5 type=i8*]
  %104 = bitcast %"class.std::__ccr1::basic_string"* %8 to i8* ; [#uses=16 type=i8*]
  call void @llvm.memset.p0i8.i64(i8* %101, i8 0, i64 12, i32 4, i1 false)
  call void @llvm.lifetime.start.p0i8(i64 12, i8* nonnull %104) #12
  %105 = bitcast %"class.std::__ccr1::basic_string"* %8 to %"struct.std::__ccr1::basic_string<char, std::__ccr1::char_traits<char>, std::__ccr1::allocator<char> >::__short"* ; [#uses=1 type=%"struct.std::__ccr1::basic_string<char, std::__ccr1::char_traits<char>, std::__ccr1::allocator<char> >::__short"*]
  %106 = getelementptr inbounds %"struct.std::__ccr1::basic_string<char, std::__ccr1::char_traits<char>, std::__ccr1::allocator<char> >::__short", %"struct.std::__ccr1::basic_string<char, std::__ccr1::char_traits<char>, std::__ccr1::allocator<char> >::__short"* %105, i32 0, i32 1, i32 0 ; [#uses=4 type=i8*]
  %107 = icmp eq i32 %84, 0                       ; [#uses=2 type=i1]
  call void @llvm.memset.p0i8.i64(i8* nonnull %104, i8 0, i64 12, i32 4, i1 false)
  br i1 %107, label %129, label %108

; <label>:108:                                    ; preds = %96
  %109 = bitcast %"class.std::__ccr1::basic_string"* %2 to %"struct.std::__ccr1::basic_string<char, std::__ccr1::char_traits<char>, std::__ccr1::allocator<char> >::__short"* ; [#uses=1 type=%"struct.std::__ccr1::basic_string<char, std::__ccr1::char_traits<char>, std::__ccr1::allocator<char> >::__short"*]
  %110 = getelementptr inbounds %"struct.std::__ccr1::basic_string<char, std::__ccr1::char_traits<char>, std::__ccr1::allocator<char> >::__short", %"struct.std::__ccr1::basic_string<char, std::__ccr1::char_traits<char>, std::__ccr1::allocator<char> >::__short"* %109, i32 0, i32 1, i32 0 ; [#uses=1 type=i8*]
  %111 = getelementptr inbounds %"class.std::__ccr1::basic_string", %"class.std::__ccr1::basic_string"* %2, i32 0, i32 0, i32 0, i32 0, i32 0, i32 0, i32 2 ; [#uses=1 type=i8**]
  br label %112

; <label>:112:                                    ; preds = %108, %122
  %113 = phi i64 [ 0, %108 ], [ %123, %122 ]      ; [#uses=5 type=i64]
  %114 = trunc i64 %113 to i32                    ; [#uses=1 type=i32]
  br i1 %76, label %117, label %115

; <label>:115:                                    ; preds = %112
  %116 = load i8*, i8** %111, align 4, !tbaa !4   ; [#uses=1 type=i8*]
  br label %117

; <label>:117:                                    ; preds = %112, %115
  %118 = phi i8* [ %116, %115 ], [ %110, %112 ]   ; [#uses=1 type=i8*]
  %119 = getelementptr inbounds i8, i8* %118, i32 %114 ; [#uses=1 type=i8*]
  %120 = load i8, i8* %119, align 1, !tbaa !4     ; [#uses=1 type=i8]
  %121 = icmp eq i8 %120, 46                      ; [#uses=1 type=i1]
  br i1 %121, label %125, label %122

; <label>:122:                                    ; preds = %117
  %123 = add nuw nsw i64 %113, 1                  ; [#uses=2 type=i64]
  %124 = icmp ult i64 %123, %85                   ; [#uses=1 type=i1]
  br i1 %124, label %112, label %129

; <label>:125:                                    ; preds = %117
  %126 = add nsw i64 %85, -1                      ; [#uses=1 type=i64]
  %127 = sub i64 %126, %113                       ; [#uses=2 type=i64]
  %128 = icmp eq i64 %113, 0                      ; [#uses=1 type=i1]
  br i1 %128, label %129, label %131

; <label>:129:                                    ; preds = %122, %96, %125
  %130 = phi i64 [ %127, %125 ], [ 0, %96 ], [ 0, %122 ] ; [#uses=1 type=i64]
  br label %131

; <label>:131:                                    ; preds = %125, %129
  %132 = phi i64 [ %130, %129 ], [ %127, %125 ]   ; [#uses=5 type=i64]
  %133 = phi i64 [ %85, %129 ], [ %113, %125 ]    ; [#uses=1 type=i64]
  %134 = icmp eq i32 %97, 0                       ; [#uses=2 type=i1]
  br i1 %134, label %135, label %137

; <label>:135:                                    ; preds = %131
  %136 = bitcast %"class.std::__ccr1::basic_string"* %9 to i8* ; [#uses=3 type=i8*]
  call void @llvm.lifetime.start.p0i8(i64 12, i8* nonnull %136) #12
  call void @llvm.memset.p0i8.i64(i8* nonnull %136, i8 0, i64 12, i32 4, i1 false)
  br label %170

; <label>:137:                                    ; preds = %131
  %138 = bitcast %"class.std::__ccr1::basic_string"* %3 to %"struct.std::__ccr1::basic_string<char, std::__ccr1::char_traits<char>, std::__ccr1::allocator<char> >::__short"* ; [#uses=1 type=%"struct.std::__ccr1::basic_string<char, std::__ccr1::char_traits<char>, std::__ccr1::allocator<char> >::__short"*]
  %139 = getelementptr inbounds %"struct.std::__ccr1::basic_string<char, std::__ccr1::char_traits<char>, std::__ccr1::allocator<char> >::__short", %"struct.std::__ccr1::basic_string<char, std::__ccr1::char_traits<char>, std::__ccr1::allocator<char> >::__short"* %138, i32 0, i32 1, i32 0 ; [#uses=1 type=i8*]
  %140 = getelementptr inbounds %"class.std::__ccr1::basic_string", %"class.std::__ccr1::basic_string"* %3, i32 0, i32 0, i32 0, i32 0, i32 0, i32 0, i32 2 ; [#uses=1 type=i8**]
  br label %141

; <label>:141:                                    ; preds = %137, %154
  %142 = phi i64 [ 0, %137 ], [ %155, %154 ]      ; [#uses=4 type=i64]
  %143 = trunc i64 %142 to i32                    ; [#uses=1 type=i32]
  br i1 %89, label %146, label %144

; <label>:144:                                    ; preds = %141
  %145 = load i8*, i8** %140, align 4, !tbaa !4   ; [#uses=1 type=i8*]
  br label %146

; <label>:146:                                    ; preds = %141, %144
  %147 = phi i8* [ %145, %144 ], [ %139, %141 ]   ; [#uses=1 type=i8*]
  %148 = getelementptr inbounds i8, i8* %147, i32 %143 ; [#uses=1 type=i8*]
  %149 = load i8, i8* %148, align 1, !tbaa !4     ; [#uses=1 type=i8]
  %150 = icmp eq i8 %149, 46                      ; [#uses=1 type=i1]
  br i1 %150, label %151, label %154

; <label>:151:                                    ; preds = %146
  %152 = add nsw i64 %98, -1                      ; [#uses=1 type=i64]
  %153 = sub i64 %152, %142                       ; [#uses=1 type=i64]
  br label %157

; <label>:154:                                    ; preds = %146
  %155 = add nuw nsw i64 %142, 1                  ; [#uses=2 type=i64]
  %156 = icmp ult i64 %155, %98                   ; [#uses=1 type=i1]
  br i1 %156, label %141, label %157

; <label>:157:                                    ; preds = %154, %151
  %158 = phi i64 [ %153, %151 ], [ 0, %154 ]      ; [#uses=2 type=i64]
  %159 = phi i64 [ %142, %151 ], [ 0, %154 ]      ; [#uses=2 type=i64]
  %160 = bitcast %"class.std::__ccr1::basic_string"* %9 to i8* ; [#uses=8 type=i8*]
  call void @llvm.lifetime.start.p0i8(i64 12, i8* nonnull %160) #12
  %161 = bitcast %"class.std::__ccr1::basic_string"* %9 to %"struct.std::__ccr1::basic_string<char, std::__ccr1::char_traits<char>, std::__ccr1::allocator<char> >::__short"* ; [#uses=1 type=%"struct.std::__ccr1::basic_string<char, std::__ccr1::char_traits<char>, std::__ccr1::allocator<char> >::__short"*]
  %162 = getelementptr inbounds %"struct.std::__ccr1::basic_string<char, std::__ccr1::char_traits<char>, std::__ccr1::allocator<char> >::__short", %"struct.std::__ccr1::basic_string<char, std::__ccr1::char_traits<char>, std::__ccr1::allocator<char> >::__short"* %161, i32 0, i32 1, i32 0 ; [#uses=1 type=i8*]
  call void @llvm.memset.p0i8.i64(i8* nonnull %160, i8 0, i64 12, i32 4, i1 false)
  br i1 %134, label %170, label %163

; <label>:163:                                    ; preds = %157
  %164 = bitcast %"class.std::__ccr1::basic_string"* %3 to %"struct.std::__ccr1::basic_string<char, std::__ccr1::char_traits<char>, std::__ccr1::allocator<char> >::__short"* ; [#uses=1 type=%"struct.std::__ccr1::basic_string<char, std::__ccr1::char_traits<char>, std::__ccr1::allocator<char> >::__short"*]
  %165 = getelementptr inbounds %"struct.std::__ccr1::basic_string<char, std::__ccr1::char_traits<char>, std::__ccr1::allocator<char> >::__short", %"struct.std::__ccr1::basic_string<char, std::__ccr1::char_traits<char>, std::__ccr1::allocator<char> >::__short"* %164, i32 0, i32 1, i32 0 ; [#uses=2 type=i8*]
  %166 = getelementptr inbounds %"class.std::__ccr1::basic_string", %"class.std::__ccr1::basic_string"* %3, i32 0, i32 0, i32 0, i32 0, i32 0, i32 0, i32 2 ; [#uses=2 type=i8**]
  %167 = bitcast %"class.std::__ccr1::basic_string"* %10 to i8* ; [#uses=4 type=i8*]
  %168 = getelementptr inbounds %"class.std::__ccr1::basic_string", %"class.std::__ccr1::basic_string"* %9, i32 0, i32 0, i32 0, i32 0, i32 0, i32 0, i32 2 ; [#uses=1 type=i8**]
  %169 = getelementptr inbounds %"class.std::__ccr1::basic_string", %"class.std::__ccr1::basic_string"* %9, i32 0, i32 0, i32 0, i32 0, i32 0, i32 0, i32 1 ; [#uses=1 type=i32*]
  br label %175

; <label>:170:                                    ; preds = %211, %135, %157
  %171 = phi i8* [ %136, %135 ], [ %160, %157 ], [ %160, %211 ] ; [#uses=4 type=i8*]
  %172 = phi i64 [ 0, %135 ], [ %159, %157 ], [ %159, %211 ] ; [#uses=1 type=i64]
  %173 = phi i64 [ 0, %135 ], [ %158, %157 ], [ %158, %211 ] ; [#uses=5 type=i64]
  %174 = invoke dereferenceable(12) %"class.std::__ccr1::basic_string"* @_ZNSt6__ccr112basic_stringIcNS_11char_traitsIcEENS_9allocatorIcEEEaSERKS5_(%"class.std::__ccr1::basic_string"* %3, %"class.std::__ccr1::basic_string"* nonnull dereferenceable(12) %9) #13
          to label %216 unwind label %229         ; [#uses=0 type=%"class.std::__ccr1::basic_string"*]

; <label>:175:                                    ; preds = %214, %163
  %176 = phi i8 [ %87, %163 ], [ %215, %214 ]     ; [#uses=1 type=i8]
  %177 = phi i64 [ 0, %163 ], [ %212, %214 ]      ; [#uses=2 type=i64]
  %178 = trunc i64 %177 to i32                    ; [#uses=2 type=i32]
  %179 = and i8 %176, 1                           ; [#uses=1 type=i8]
  %180 = icmp eq i8 %179, 0                       ; [#uses=2 type=i1]
  br i1 %180, label %183, label %181

; <label>:181:                                    ; preds = %175
  %182 = load i8*, i8** %166, align 4, !tbaa !4   ; [#uses=1 type=i8*]
  br label %183

; <label>:183:                                    ; preds = %175, %181
  %184 = phi i8* [ %182, %181 ], [ %165, %175 ]   ; [#uses=1 type=i8*]
  %185 = getelementptr inbounds i8, i8* %184, i32 %178 ; [#uses=1 type=i8*]
  %186 = load i8, i8* %185, align 1, !tbaa !4     ; [#uses=1 type=i8]
  %187 = icmp eq i8 %186, 46                      ; [#uses=1 type=i1]
  br i1 %187, label %211, label %188

; <label>:188:                                    ; preds = %183
  call void @llvm.lifetime.start.p0i8(i64 12, i8* nonnull %167) #12
  br i1 %180, label %191, label %189

; <label>:189:                                    ; preds = %188
  %190 = load i8*, i8** %166, align 4, !tbaa !4   ; [#uses=1 type=i8*]
  br label %191

; <label>:191:                                    ; preds = %188, %189
  %192 = phi i8* [ %190, %189 ], [ %165, %188 ]   ; [#uses=1 type=i8*]
  %193 = getelementptr inbounds i8, i8* %192, i32 %178 ; [#uses=1 type=i8*]
  %194 = load i8, i8* %193, align 1, !tbaa !4     ; [#uses=1 type=i8]
  invoke void @_ZNSt6__ccr1plIcNS_11char_traitsIcEENS_9allocatorIcEEEENS_12basic_stringIT_T0_T1_EERKS9_S6_(%"class.std::__ccr1::basic_string"* nonnull sret %10, %"class.std::__ccr1::basic_string"* nonnull dereferenceable(12) %9, i8 zeroext %194) #13
          to label %195 unwind label %207

; <label>:195:                                    ; preds = %191
  %196 = load i8, i8* %160, align 4, !tbaa !4     ; [#uses=1 type=i8]
  %197 = and i8 %196, 1                           ; [#uses=1 type=i8]
  %198 = icmp eq i8 %197, 0                       ; [#uses=1 type=i1]
  br i1 %198, label %201, label %199

; <label>:199:                                    ; preds = %195
  %200 = load i8*, i8** %168, align 4, !tbaa !4   ; [#uses=1 type=i8*]
  store i8 0, i8* %200, align 1, !tbaa !4
  store i32 0, i32* %169, align 4, !tbaa !4
  br label %202

; <label>:201:                                    ; preds = %195
  store i8 0, i8* %162, align 1, !tbaa !4
  store i8 0, i8* %160, align 4, !tbaa !4
  br label %202

; <label>:202:                                    ; preds = %201, %199
  invoke void @_ZNSt6__ccr112basic_stringIcNS_11char_traitsIcEENS_9allocatorIcEEE7reserveEj(%"class.std::__ccr1::basic_string"* nonnull %9, i32 0) #13
          to label %206 unwind label %203

; <label>:203:                                    ; preds = %202
  %204 = landingpad { i8*, i32 }
          catch i8* null                          ; [#uses=1 type={ i8*, i32 }]
  %205 = extractvalue { i8*, i32 } %204, 0        ; [#uses=1 type=i8*]
  call void @__clang_call_terminate(i8* %205) #15
  unreachable

; <label>:206:                                    ; preds = %202
  call void @llvm.memcpy.p0i8.p0i8.i32(i8* nonnull %160, i8* nonnull %167, i32 12, i32 4, i1 false) #12, !tbaa.struct !12
  call void @llvm.lifetime.end.p0i8(i64 12, i8* nonnull %167) #12
  br label %211

; <label>:207:                                    ; preds = %191
  %208 = landingpad { i8*, i32 }
          cleanup                                 ; [#uses=2 type={ i8*, i32 }]
  %209 = extractvalue { i8*, i32 } %208, 0        ; [#uses=1 type=i8*]
  %210 = extractvalue { i8*, i32 } %208, 1        ; [#uses=1 type=i32]
  call void @llvm.lifetime.end.p0i8(i64 12, i8* nonnull %167) #12
  br label %1242

; <label>:211:                                    ; preds = %183, %206
  %212 = add nuw nsw i64 %177, 1                  ; [#uses=2 type=i64]
  %213 = icmp ult i64 %212, %98                   ; [#uses=1 type=i1]
  br i1 %213, label %214, label %170

; <label>:214:                                    ; preds = %211
  %215 = load i8, i8* %86, align 4, !tbaa !4      ; [#uses=1 type=i8]
  br label %175

; <label>:216:                                    ; preds = %170
  %217 = bitcast %"class.std::__ccr1::basic_string"* %11 to i8* ; [#uses=9 type=i8*]
  call void @llvm.lifetime.start.p0i8(i64 12, i8* nonnull %217) #12
  %218 = bitcast %"class.std::__ccr1::basic_string"* %11 to %"struct.std::__ccr1::basic_string<char, std::__ccr1::char_traits<char>, std::__ccr1::allocator<char> >::__short"* ; [#uses=1 type=%"struct.std::__ccr1::basic_string<char, std::__ccr1::char_traits<char>, std::__ccr1::allocator<char> >::__short"*]
  %219 = getelementptr inbounds %"struct.std::__ccr1::basic_string<char, std::__ccr1::char_traits<char>, std::__ccr1::allocator<char> >::__short", %"struct.std::__ccr1::basic_string<char, std::__ccr1::char_traits<char>, std::__ccr1::allocator<char> >::__short"* %218, i32 0, i32 1, i32 0 ; [#uses=1 type=i8*]
  call void @llvm.memset.p0i8.i64(i8* nonnull %217, i8 0, i64 12, i32 4, i1 false)
  br i1 %107, label %227, label %220

; <label>:220:                                    ; preds = %216
  %221 = bitcast %"class.std::__ccr1::basic_string"* %2 to %"struct.std::__ccr1::basic_string<char, std::__ccr1::char_traits<char>, std::__ccr1::allocator<char> >::__short"* ; [#uses=1 type=%"struct.std::__ccr1::basic_string<char, std::__ccr1::char_traits<char>, std::__ccr1::allocator<char> >::__short"*]
  %222 = getelementptr inbounds %"struct.std::__ccr1::basic_string<char, std::__ccr1::char_traits<char>, std::__ccr1::allocator<char> >::__short", %"struct.std::__ccr1::basic_string<char, std::__ccr1::char_traits<char>, std::__ccr1::allocator<char> >::__short"* %221, i32 0, i32 1, i32 0 ; [#uses=2 type=i8*]
  %223 = getelementptr inbounds %"class.std::__ccr1::basic_string", %"class.std::__ccr1::basic_string"* %2, i32 0, i32 0, i32 0, i32 0, i32 0, i32 0, i32 2 ; [#uses=2 type=i8**]
  %224 = bitcast %"class.std::__ccr1::basic_string"* %12 to i8* ; [#uses=4 type=i8*]
  %225 = getelementptr inbounds %"class.std::__ccr1::basic_string", %"class.std::__ccr1::basic_string"* %11, i32 0, i32 0, i32 0, i32 0, i32 0, i32 0, i32 2 ; [#uses=1 type=i8**]
  %226 = getelementptr inbounds %"class.std::__ccr1::basic_string", %"class.std::__ccr1::basic_string"* %11, i32 0, i32 0, i32 0, i32 0, i32 0, i32 0, i32 1 ; [#uses=1 type=i32*]
  br label %233

; <label>:227:                                    ; preds = %269, %216
  %228 = invoke dereferenceable(12) %"class.std::__ccr1::basic_string"* @_ZNSt6__ccr112basic_stringIcNS_11char_traitsIcEENS_9allocatorIcEEEaSERKS5_(%"class.std::__ccr1::basic_string"* %2, %"class.std::__ccr1::basic_string"* nonnull dereferenceable(12) %11) #13
          to label %272 unwind label %282         ; [#uses=0 type=%"class.std::__ccr1::basic_string"*]

; <label>:229:                                    ; preds = %170
  %230 = landingpad { i8*, i32 }
          cleanup                                 ; [#uses=2 type={ i8*, i32 }]
  %231 = extractvalue { i8*, i32 } %230, 0        ; [#uses=1 type=i8*]
  %232 = extractvalue { i8*, i32 } %230, 1        ; [#uses=1 type=i32]
  br label %1242

; <label>:233:                                    ; preds = %220, %269
  %234 = phi i64 [ 0, %220 ], [ %270, %269 ]      ; [#uses=2 type=i64]
  %235 = trunc i64 %234 to i32                    ; [#uses=2 type=i32]
  %236 = load i8, i8* %73, align 4, !tbaa !4      ; [#uses=1 type=i8]
  %237 = and i8 %236, 1                           ; [#uses=1 type=i8]
  %238 = icmp eq i8 %237, 0                       ; [#uses=2 type=i1]
  br i1 %238, label %241, label %239

; <label>:239:                                    ; preds = %233
  %240 = load i8*, i8** %223, align 4, !tbaa !4   ; [#uses=1 type=i8*]
  br label %241

; <label>:241:                                    ; preds = %233, %239
  %242 = phi i8* [ %240, %239 ], [ %222, %233 ]   ; [#uses=1 type=i8*]
  %243 = getelementptr inbounds i8, i8* %242, i32 %235 ; [#uses=1 type=i8*]
  %244 = load i8, i8* %243, align 1, !tbaa !4     ; [#uses=1 type=i8]
  %245 = icmp eq i8 %244, 46                      ; [#uses=1 type=i1]
  br i1 %245, label %269, label %246

; <label>:246:                                    ; preds = %241
  call void @llvm.lifetime.start.p0i8(i64 12, i8* nonnull %224) #12
  br i1 %238, label %249, label %247

; <label>:247:                                    ; preds = %246
  %248 = load i8*, i8** %223, align 4, !tbaa !4   ; [#uses=1 type=i8*]
  br label %249

; <label>:249:                                    ; preds = %246, %247
  %250 = phi i8* [ %248, %247 ], [ %222, %246 ]   ; [#uses=1 type=i8*]
  %251 = getelementptr inbounds i8, i8* %250, i32 %235 ; [#uses=1 type=i8*]
  %252 = load i8, i8* %251, align 1, !tbaa !4     ; [#uses=1 type=i8]
  invoke void @_ZNSt6__ccr1plIcNS_11char_traitsIcEENS_9allocatorIcEEEENS_12basic_stringIT_T0_T1_EERKS9_S6_(%"class.std::__ccr1::basic_string"* nonnull sret %12, %"class.std::__ccr1::basic_string"* nonnull dereferenceable(12) %11, i8 zeroext %252) #13
          to label %253 unwind label %265

; <label>:253:                                    ; preds = %249
  %254 = load i8, i8* %217, align 4, !tbaa !4     ; [#uses=1 type=i8]
  %255 = and i8 %254, 1                           ; [#uses=1 type=i8]
  %256 = icmp eq i8 %255, 0                       ; [#uses=1 type=i1]
  br i1 %256, label %259, label %257

; <label>:257:                                    ; preds = %253
  %258 = load i8*, i8** %225, align 4, !tbaa !4   ; [#uses=1 type=i8*]
  store i8 0, i8* %258, align 1, !tbaa !4
  store i32 0, i32* %226, align 4, !tbaa !4
  br label %260

; <label>:259:                                    ; preds = %253
  store i8 0, i8* %219, align 1, !tbaa !4
  store i8 0, i8* %217, align 4, !tbaa !4
  br label %260

; <label>:260:                                    ; preds = %259, %257
  invoke void @_ZNSt6__ccr112basic_stringIcNS_11char_traitsIcEENS_9allocatorIcEEE7reserveEj(%"class.std::__ccr1::basic_string"* nonnull %11, i32 0) #13
          to label %264 unwind label %261

; <label>:261:                                    ; preds = %260
  %262 = landingpad { i8*, i32 }
          catch i8* null                          ; [#uses=1 type={ i8*, i32 }]
  %263 = extractvalue { i8*, i32 } %262, 0        ; [#uses=1 type=i8*]
  call void @__clang_call_terminate(i8* %263) #15
  unreachable

; <label>:264:                                    ; preds = %260
  call void @llvm.memcpy.p0i8.p0i8.i32(i8* nonnull %217, i8* nonnull %224, i32 12, i32 4, i1 false) #12, !tbaa.struct !12
  call void @llvm.lifetime.end.p0i8(i64 12, i8* nonnull %224) #12
  br label %269

; <label>:265:                                    ; preds = %249
  %266 = landingpad { i8*, i32 }
          cleanup                                 ; [#uses=2 type={ i8*, i32 }]
  %267 = extractvalue { i8*, i32 } %266, 0        ; [#uses=1 type=i8*]
  %268 = extractvalue { i8*, i32 } %266, 1        ; [#uses=1 type=i32]
  call void @llvm.lifetime.end.p0i8(i64 12, i8* nonnull %224) #12
  br label %1232

; <label>:269:                                    ; preds = %241, %264
  %270 = add nuw nsw i64 %234, 1                  ; [#uses=2 type=i64]
  %271 = icmp ult i64 %270, %85                   ; [#uses=1 type=i1]
  br i1 %271, label %233, label %227

; <label>:272:                                    ; preds = %227
  %273 = icmp ne i64 %132, 0                      ; [#uses=1 type=i1]
  %274 = icmp ne i64 %173, 0                      ; [#uses=1 type=i1]
  %275 = and i1 %273, %274                        ; [#uses=1 type=i1]
  br i1 %275, label %276, label %312

; <label>:276:                                    ; preds = %272
  %277 = icmp slt i64 %132, %173                  ; [#uses=1 type=i1]
  br i1 %277, label %278, label %296

; <label>:278:                                    ; preds = %276
  %279 = sub nsw i64 %173, %132                   ; [#uses=2 type=i64]
  %280 = icmp sgt i64 %279, 0                     ; [#uses=1 type=i1]
  br i1 %280, label %281, label %296

; <label>:281:                                    ; preds = %278
  br label %286

; <label>:282:                                    ; preds = %322, %227
  %283 = landingpad { i8*, i32 }
          cleanup                                 ; [#uses=2 type={ i8*, i32 }]
  %284 = extractvalue { i8*, i32 } %283, 0        ; [#uses=1 type=i8*]
  %285 = extractvalue { i8*, i32 } %283, 1        ; [#uses=1 type=i32]
  br label %1232

; <label>:286:                                    ; preds = %281, %289
  %287 = phi i64 [ %290, %289 ], [ 0, %281 ]      ; [#uses=1 type=i64]
  %288 = invoke dereferenceable(12) %"class.std::__ccr1::basic_string"* @_ZNSt6__ccr112basic_stringIcNS_11char_traitsIcEENS_9allocatorIcEEE6appendEPKc(%"class.std::__ccr1::basic_string"* %2, i8* getelementptr inbounds ([2 x i8], [2 x i8]* @.str.3, i32 0, i32 0)) #13
          to label %289 unwind label %292         ; [#uses=0 type=%"class.std::__ccr1::basic_string"*]

; <label>:289:                                    ; preds = %286
  %290 = add nuw nsw i64 %287, 1                  ; [#uses=2 type=i64]
  %291 = icmp slt i64 %290, %279                  ; [#uses=1 type=i1]
  br i1 %291, label %286, label %296

; <label>:292:                                    ; preds = %286
  %293 = landingpad { i8*, i32 }
          cleanup                                 ; [#uses=2 type={ i8*, i32 }]
  %294 = extractvalue { i8*, i32 } %293, 0        ; [#uses=1 type=i8*]
  %295 = extractvalue { i8*, i32 } %293, 1        ; [#uses=1 type=i32]
  br label %1232

; <label>:296:                                    ; preds = %289, %278, %276
  %297 = icmp sgt i64 %132, %173                  ; [#uses=1 type=i1]
  br i1 %297, label %298, label %312

; <label>:298:                                    ; preds = %296
  %299 = sub nsw i64 %132, %173                   ; [#uses=2 type=i64]
  %300 = icmp sgt i64 %299, 0                     ; [#uses=1 type=i1]
  br i1 %300, label %301, label %312

; <label>:301:                                    ; preds = %298
  br label %302

; <label>:302:                                    ; preds = %301, %305
  %303 = phi i64 [ %306, %305 ], [ 0, %301 ]      ; [#uses=1 type=i64]
  %304 = invoke dereferenceable(12) %"class.std::__ccr1::basic_string"* @_ZNSt6__ccr112basic_stringIcNS_11char_traitsIcEENS_9allocatorIcEEE6appendEPKc(%"class.std::__ccr1::basic_string"* %3, i8* getelementptr inbounds ([2 x i8], [2 x i8]* @.str.3, i32 0, i32 0)) #13
          to label %305 unwind label %308         ; [#uses=0 type=%"class.std::__ccr1::basic_string"*]

; <label>:305:                                    ; preds = %302
  %306 = add nuw nsw i64 %303, 1                  ; [#uses=2 type=i64]
  %307 = icmp slt i64 %306, %299                  ; [#uses=1 type=i1]
  br i1 %307, label %302, label %312

; <label>:308:                                    ; preds = %302
  %309 = landingpad { i8*, i32 }
          cleanup                                 ; [#uses=2 type={ i8*, i32 }]
  %310 = extractvalue { i8*, i32 } %309, 0        ; [#uses=1 type=i8*]
  %311 = extractvalue { i8*, i32 } %309, 1        ; [#uses=1 type=i32]
  br label %1232

; <label>:312:                                    ; preds = %305, %298, %272, %296
  %313 = load i8, i8* %86, align 4, !tbaa !4      ; [#uses=2 type=i8]
  %314 = and i8 %313, 1                           ; [#uses=1 type=i8]
  %315 = icmp eq i8 %314, 0                       ; [#uses=1 type=i1]
  br i1 %315, label %319, label %316

; <label>:316:                                    ; preds = %312
  %317 = getelementptr inbounds %"class.std::__ccr1::basic_string", %"class.std::__ccr1::basic_string"* %3, i32 0, i32 0, i32 0, i32 0, i32 0, i32 0, i32 1 ; [#uses=1 type=i32*]
  %318 = load i32, i32* %317, align 4, !tbaa !4   ; [#uses=1 type=i32]
  br label %322

; <label>:319:                                    ; preds = %312
  %320 = zext i8 %313 to i32                      ; [#uses=1 type=i32]
  %321 = lshr i32 %320, 1                         ; [#uses=1 type=i32]
  br label %322

; <label>:322:                                    ; preds = %316, %319
  %323 = phi i32 [ %318, %316 ], [ %321, %319 ]   ; [#uses=1 type=i32]
  %324 = invoke dereferenceable(12) %"class.std::__ccr1::basic_string"* @_ZNSt6__ccr112basic_stringIcNS_11char_traitsIcEENS_9allocatorIcEEEaSERKS5_(%"class.std::__ccr1::basic_string"* nonnull %11, %"class.std::__ccr1::basic_string"* nonnull dereferenceable(12) %2) #13
          to label %325 unwind label %282         ; [#uses=0 type=%"class.std::__ccr1::basic_string"*]

; <label>:325:                                    ; preds = %322
  %326 = invoke %"class.std::__ccr1::basic_string"* @_ZNSt6__ccr112basic_stringIcNS_11char_traitsIcEENS_9allocatorIcEEEC1ERKS5_(%"class.std::__ccr1::basic_string"* nonnull %13, %"class.std::__ccr1::basic_string"* nonnull dereferenceable(12) %2) #13
          to label %327 unwind label %369         ; [#uses=0 type=%"class.std::__ccr1::basic_string"*]

; <label>:327:                                    ; preds = %325
  %328 = invoke %"class.std::__ccr1::basic_string"* @_ZNSt6__ccr112basic_stringIcNS_11char_traitsIcEENS_9allocatorIcEEEC1ERKS5_(%"class.std::__ccr1::basic_string"* nonnull %14, %"class.std::__ccr1::basic_string"* nonnull dereferenceable(12) %3) #13
          to label %329 unwind label %375         ; [#uses=0 type=%"class.std::__ccr1::basic_string"*]

; <label>:329:                                    ; preds = %327
  %330 = invoke i32 @_ZN9ultra_num5ucompENSt6__ccr112basic_stringIcNS0_11char_traitsIcEENS0_9allocatorIcEEEES6_x(%class.ultra_num* %1, %"class.std::__ccr1::basic_string"* nonnull %13, %"class.std::__ccr1::basic_string"* nonnull %14, i64 %4) #13
          to label %331 unwind label %379         ; [#uses=1 type=i32]

; <label>:331:                                    ; preds = %329
  %332 = icmp eq i32 %330, 2                      ; [#uses=1 type=i1]
  %333 = bitcast %"class.std::__ccr1::basic_string"* %14 to i8* ; [#uses=1 type=i8*]
  %334 = load i8, i8* %333, align 4, !tbaa !4     ; [#uses=1 type=i8]
  %335 = and i8 %334, 1                           ; [#uses=1 type=i8]
  %336 = icmp eq i8 %335, 0                       ; [#uses=1 type=i1]
  br i1 %336, label %340, label %337

; <label>:337:                                    ; preds = %331
  %338 = getelementptr inbounds %"class.std::__ccr1::basic_string", %"class.std::__ccr1::basic_string"* %14, i32 0, i32 0, i32 0, i32 0, i32 0, i32 0, i32 2 ; [#uses=1 type=i8**]
  %339 = load i8*, i8** %338, align 4, !tbaa !4   ; [#uses=1 type=i8*]
  call void @_ZdlPv(i8* %339) #14
  br label %340

; <label>:340:                                    ; preds = %331, %337
  %341 = bitcast %"class.std::__ccr1::basic_string"* %13 to i8* ; [#uses=1 type=i8*]
  %342 = load i8, i8* %341, align 4, !tbaa !4     ; [#uses=1 type=i8]
  %343 = and i8 %342, 1                           ; [#uses=1 type=i8]
  %344 = icmp eq i8 %343, 0                       ; [#uses=1 type=i1]
  br i1 %344, label %348, label %345

; <label>:345:                                    ; preds = %340
  %346 = getelementptr inbounds %"class.std::__ccr1::basic_string", %"class.std::__ccr1::basic_string"* %13, i32 0, i32 0, i32 0, i32 0, i32 0, i32 0, i32 2 ; [#uses=1 type=i8**]
  %347 = load i8*, i8** %346, align 4, !tbaa !4   ; [#uses=1 type=i8*]
  call void @_ZdlPv(i8* %347) #14
  br label %348

; <label>:348:                                    ; preds = %340, %345
  br i1 %332, label %351, label %349

; <label>:349:                                    ; preds = %348
  %350 = load i8, i8* %73, align 4, !tbaa !4      ; [#uses=1 type=i8]
  br label %400

; <label>:351:                                    ; preds = %348
  %352 = getelementptr inbounds %"class.std::__ccr1::basic_string", %"class.std::__ccr1::basic_string"* %2, i32 0, i32 0, i32 0, i32 0, i32 0, i32 0, i32 1 ; [#uses=1 type=i32*]
  br label %353

; <label>:353:                                    ; preds = %365, %351
  %354 = load i8, i8* %73, align 4, !tbaa !4      ; [#uses=3 type=i8]
  %355 = and i8 %354, 1                           ; [#uses=1 type=i8]
  %356 = icmp eq i8 %355, 0                       ; [#uses=1 type=i1]
  br i1 %356, label %359, label %357

; <label>:357:                                    ; preds = %353
  %358 = load i32, i32* %352, align 4, !tbaa !4   ; [#uses=1 type=i32]
  br label %362

; <label>:359:                                    ; preds = %353
  %360 = zext i8 %354 to i32                      ; [#uses=1 type=i32]
  %361 = lshr i32 %360, 1                         ; [#uses=1 type=i32]
  br label %362

; <label>:362:                                    ; preds = %357, %359
  %363 = phi i32 [ %358, %357 ], [ %361, %359 ]   ; [#uses=1 type=i32]
  %364 = icmp ugt i32 %363, %323                  ; [#uses=1 type=i1]
  br i1 %364, label %400, label %365

; <label>:365:                                    ; preds = %362
  %366 = invoke dereferenceable(12) %"class.std::__ccr1::basic_string"* @_ZNSt6__ccr112basic_stringIcNS_11char_traitsIcEENS_9allocatorIcEEE6appendEPKc(%"class.std::__ccr1::basic_string"* nonnull %2, i8* getelementptr inbounds ([2 x i8], [2 x i8]* @.str.3, i32 0, i32 0)) #13
          to label %353 unwind label %367         ; [#uses=0 type=%"class.std::__ccr1::basic_string"*]

; <label>:367:                                    ; preds = %365
  %368 = landingpad { i8*, i32 }
          cleanup                                 ; [#uses=1 type={ i8*, i32 }]
  br label %371

; <label>:369:                                    ; preds = %325, %502
  %370 = landingpad { i8*, i32 }
          cleanup                                 ; [#uses=1 type={ i8*, i32 }]
  br label %371

; <label>:371:                                    ; preds = %369, %367
  %372 = phi { i8*, i32 } [ %368, %367 ], [ %370, %369 ] ; [#uses=2 type={ i8*, i32 }]
  %373 = extractvalue { i8*, i32 } %372, 0        ; [#uses=1 type=i8*]
  %374 = extractvalue { i8*, i32 } %372, 1        ; [#uses=1 type=i32]
  br label %1232

; <label>:375:                                    ; preds = %327
  %376 = landingpad { i8*, i32 }
          cleanup                                 ; [#uses=2 type={ i8*, i32 }]
  %377 = extractvalue { i8*, i32 } %376, 0        ; [#uses=1 type=i8*]
  %378 = extractvalue { i8*, i32 } %376, 1        ; [#uses=1 type=i32]
  br label %390

; <label>:379:                                    ; preds = %329
  %380 = landingpad { i8*, i32 }
          cleanup                                 ; [#uses=2 type={ i8*, i32 }]
  %381 = extractvalue { i8*, i32 } %380, 0        ; [#uses=2 type=i8*]
  %382 = extractvalue { i8*, i32 } %380, 1        ; [#uses=2 type=i32]
  %383 = bitcast %"class.std::__ccr1::basic_string"* %14 to i8* ; [#uses=1 type=i8*]
  %384 = load i8, i8* %383, align 4, !tbaa !4     ; [#uses=1 type=i8]
  %385 = and i8 %384, 1                           ; [#uses=1 type=i8]
  %386 = icmp eq i8 %385, 0                       ; [#uses=1 type=i1]
  br i1 %386, label %390, label %387

; <label>:387:                                    ; preds = %379
  %388 = getelementptr inbounds %"class.std::__ccr1::basic_string", %"class.std::__ccr1::basic_string"* %14, i32 0, i32 0, i32 0, i32 0, i32 0, i32 0, i32 2 ; [#uses=1 type=i8**]
  %389 = load i8*, i8** %388, align 4, !tbaa !4   ; [#uses=1 type=i8*]
  call void @_ZdlPv(i8* %389) #14
  br label %390

; <label>:390:                                    ; preds = %387, %379, %375
  %391 = phi i8* [ %377, %375 ], [ %381, %379 ], [ %381, %387 ] ; [#uses=2 type=i8*]
  %392 = phi i32 [ %378, %375 ], [ %382, %379 ], [ %382, %387 ] ; [#uses=2 type=i32]
  %393 = bitcast %"class.std::__ccr1::basic_string"* %13 to i8* ; [#uses=1 type=i8*]
  %394 = load i8, i8* %393, align 4, !tbaa !4     ; [#uses=1 type=i8]
  %395 = and i8 %394, 1                           ; [#uses=1 type=i8]
  %396 = icmp eq i8 %395, 0                       ; [#uses=1 type=i1]
  br i1 %396, label %1232, label %397

; <label>:397:                                    ; preds = %390
  %398 = getelementptr inbounds %"class.std::__ccr1::basic_string", %"class.std::__ccr1::basic_string"* %13, i32 0, i32 0, i32 0, i32 0, i32 0, i32 0, i32 2 ; [#uses=1 type=i8**]
  %399 = load i8*, i8** %398, align 4, !tbaa !4   ; [#uses=1 type=i8*]
  call void @_ZdlPv(i8* %399) #14
  br label %1232

; <label>:400:                                    ; preds = %362, %349
  %401 = phi i8 [ %350, %349 ], [ %354, %362 ]    ; [#uses=3 type=i8]
  %402 = and i8 %401, 1                           ; [#uses=1 type=i8]
  %403 = icmp eq i8 %402, 0                       ; [#uses=1 type=i1]
  br i1 %403, label %407, label %404

; <label>:404:                                    ; preds = %400
  %405 = getelementptr inbounds %"class.std::__ccr1::basic_string", %"class.std::__ccr1::basic_string"* %2, i32 0, i32 0, i32 0, i32 0, i32 0, i32 0, i32 1 ; [#uses=1 type=i32*]
  %406 = load i32, i32* %405, align 4, !tbaa !4   ; [#uses=1 type=i32]
  br label %410

; <label>:407:                                    ; preds = %400
  %408 = zext i8 %401 to i32                      ; [#uses=1 type=i32]
  %409 = lshr i32 %408, 1                         ; [#uses=1 type=i32]
  br label %410

; <label>:410:                                    ; preds = %404, %407
  %411 = phi i32 [ %406, %404 ], [ %409, %407 ]   ; [#uses=2 type=i32]
  %412 = zext i32 %411 to i64                     ; [#uses=3 type=i64]
  %413 = icmp eq i32 %411, 0                      ; [#uses=2 type=i1]
  br i1 %413, label %502, label %414

; <label>:414:                                    ; preds = %410
  %415 = bitcast %"class.std::__ccr1::basic_string"* %2 to %"struct.std::__ccr1::basic_string<char, std::__ccr1::char_traits<char>, std::__ccr1::allocator<char> >::__short"* ; [#uses=1 type=%"struct.std::__ccr1::basic_string<char, std::__ccr1::char_traits<char>, std::__ccr1::allocator<char> >::__short"*]
  %416 = getelementptr inbounds %"struct.std::__ccr1::basic_string<char, std::__ccr1::char_traits<char>, std::__ccr1::allocator<char> >::__short", %"struct.std::__ccr1::basic_string<char, std::__ccr1::char_traits<char>, std::__ccr1::allocator<char> >::__short"* %415, i32 0, i32 1, i32 0 ; [#uses=1 type=i8*]
  %417 = getelementptr inbounds %"class.std::__ccr1::queue", %"class.std::__ccr1::queue"* %6, i32 0, i32 0 ; [#uses=1 type=%"class.std::__ccr1::deque"*]
  %418 = getelementptr inbounds %"class.std::__ccr1::basic_string", %"class.std::__ccr1::basic_string"* %2, i32 0, i32 0, i32 0, i32 0, i32 0, i32 0, i32 2 ; [#uses=1 type=i8**]
  br label %482

; <label>:419:                                    ; preds = %493
  br i1 %413, label %502, label %420

; <label>:420:                                    ; preds = %419
  %421 = bitcast %"class.std::__ccr1::basic_string"* %15 to i8* ; [#uses=4 type=i8*]
  %422 = getelementptr inbounds %"class.std::__ccr1::queue", %"class.std::__ccr1::queue"* %6, i32 0, i32 0, i32 0, i32 0, i32 1 ; [#uses=4 type=i8***]
  %423 = getelementptr inbounds %"class.std::__ccr1::queue", %"class.std::__ccr1::queue"* %6, i32 0, i32 0, i32 0, i32 1 ; [#uses=5 type=i32*]
  %424 = getelementptr inbounds %"class.std::__ccr1::basic_string", %"class.std::__ccr1::basic_string"* %8, i32 0, i32 0, i32 0, i32 0, i32 0, i32 0, i32 2 ; [#uses=4 type=i8**]
  %425 = getelementptr inbounds %"class.std::__ccr1::basic_string", %"class.std::__ccr1::basic_string"* %8, i32 0, i32 0, i32 0, i32 0, i32 0, i32 0, i32 1 ; [#uses=3 type=i32*]
  %426 = getelementptr inbounds %"class.std::__ccr1::queue", %"class.std::__ccr1::queue"* %6, i32 0, i32 0, i32 0, i32 2, i32 0, i32 0 ; [#uses=2 type=i32*]
  %427 = bitcast %"class.std::__ccr1::basic_string"* %17 to i8* ; [#uses=2 type=i8*]
  %428 = bitcast %"class.std::__ccr1::basic_string"* %16 to i8* ; [#uses=2 type=i8*]
  %429 = getelementptr inbounds %"class.std::__ccr1::basic_string", %"class.std::__ccr1::basic_string"* %17, i32 0, i32 0, i32 0, i32 0, i32 0, i32 0, i32 2 ; [#uses=2 type=i8**]
  %430 = getelementptr inbounds %"class.std::__ccr1::basic_string", %"class.std::__ccr1::basic_string"* %16, i32 0, i32 0, i32 0, i32 0, i32 0, i32 0, i32 2 ; [#uses=2 type=i8**]
  %431 = bitcast %"class.std::__ccr1::basic_string"* %20 to i8* ; [#uses=12 type=i8*]
  %432 = bitcast %"class.std::__ccr1::basic_string"* %20 to %"struct.std::__ccr1::basic_string<char, std::__ccr1::char_traits<char>, std::__ccr1::allocator<char> >::__short"* ; [#uses=1 type=%"struct.std::__ccr1::basic_string<char, std::__ccr1::char_traits<char>, std::__ccr1::allocator<char> >::__short"*]
  %433 = getelementptr inbounds %"struct.std::__ccr1::basic_string<char, std::__ccr1::char_traits<char>, std::__ccr1::allocator<char> >::__short", %"struct.std::__ccr1::basic_string<char, std::__ccr1::char_traits<char>, std::__ccr1::allocator<char> >::__short"* %432, i32 0, i32 1, i32 0 ; [#uses=2 type=i8*]
  %434 = bitcast %"class.std::__ccr1::basic_string"* %21 to i8* ; [#uses=9 type=i8*]
  %435 = bitcast %"class.std::__ccr1::basic_string"* %21 to %"struct.std::__ccr1::basic_string<char, std::__ccr1::char_traits<char>, std::__ccr1::allocator<char> >::__short"* ; [#uses=1 type=%"struct.std::__ccr1::basic_string<char, std::__ccr1::char_traits<char>, std::__ccr1::allocator<char> >::__short"*]
  %436 = getelementptr inbounds %"struct.std::__ccr1::basic_string<char, std::__ccr1::char_traits<char>, std::__ccr1::allocator<char> >::__short", %"struct.std::__ccr1::basic_string<char, std::__ccr1::char_traits<char>, std::__ccr1::allocator<char> >::__short"* %435, i32 0, i32 1, i32 0 ; [#uses=1 type=i8*]
  %437 = icmp sgt i64 %4, 0                       ; [#uses=1 type=i1]
  %438 = bitcast %"class.std::__ccr1::basic_string"* %39 to i8* ; [#uses=4 type=i8*]
  %439 = bitcast %"class.std::__ccr1::basic_string"* %19 to i8* ; [#uses=2 type=i8*]
  %440 = add nsw i64 %412, -1                     ; [#uses=1 type=i64]
  %441 = bitcast %"class.std::__ccr1::basic_string"* %22 to i8* ; [#uses=4 type=i8*]
  %442 = bitcast %"class.std::__ccr1::basic_string"* %23 to i8* ; [#uses=6 type=i8*]
  %443 = getelementptr inbounds %"class.std::__ccr1::basic_string", %"class.std::__ccr1::basic_string"* %20, i32 0, i32 0, i32 0, i32 0, i32 0, i32 0, i32 2 ; [#uses=4 type=i8**]
  %444 = getelementptr inbounds %"class.std::__ccr1::basic_string", %"class.std::__ccr1::basic_string"* %20, i32 0, i32 0, i32 0, i32 0, i32 0, i32 0, i32 1 ; [#uses=2 type=i32*]
  %445 = getelementptr inbounds %"class.std::__ccr1::basic_string", %"class.std::__ccr1::basic_string"* %23, i32 0, i32 0, i32 0, i32 0, i32 0, i32 0, i32 2 ; [#uses=3 type=i8**]
  %446 = getelementptr inbounds %"class.std::__ccr1::basic_string", %"class.std::__ccr1::basic_string"* %23, i32 0, i32 0, i32 0, i32 0, i32 0, i32 0, i32 1 ; [#uses=1 type=i32*]
  %447 = bitcast %"class.std::__ccr1::basic_string"* %23 to %"struct.std::__ccr1::basic_string<char, std::__ccr1::char_traits<char>, std::__ccr1::allocator<char> >::__short"* ; [#uses=1 type=%"struct.std::__ccr1::basic_string<char, std::__ccr1::char_traits<char>, std::__ccr1::allocator<char> >::__short"*]
  %448 = getelementptr inbounds %"struct.std::__ccr1::basic_string<char, std::__ccr1::char_traits<char>, std::__ccr1::allocator<char> >::__short", %"struct.std::__ccr1::basic_string<char, std::__ccr1::char_traits<char>, std::__ccr1::allocator<char> >::__short"* %447, i32 0, i32 1, i32 0 ; [#uses=1 type=i8*]
  %449 = bitcast %"class.std::__ccr1::basic_string"* %25 to i8* ; [#uses=2 type=i8*]
  %450 = bitcast %"class.std::__ccr1::basic_string"* %24 to i8* ; [#uses=2 type=i8*]
  %451 = getelementptr inbounds %"class.std::__ccr1::basic_string", %"class.std::__ccr1::basic_string"* %25, i32 0, i32 0, i32 0, i32 0, i32 0, i32 0, i32 2 ; [#uses=2 type=i8**]
  %452 = getelementptr inbounds %"class.std::__ccr1::basic_string", %"class.std::__ccr1::basic_string"* %24, i32 0, i32 0, i32 0, i32 0, i32 0, i32 0, i32 2 ; [#uses=2 type=i8**]
  %453 = bitcast %"class.std::__ccr1::basic_string"* %29 to i8* ; [#uses=2 type=i8*]
  %454 = bitcast %"class.std::__ccr1::basic_string"* %26 to i8* ; [#uses=2 type=i8*]
  %455 = getelementptr inbounds %"class.std::__ccr1::basic_string", %"class.std::__ccr1::basic_string"* %29, i32 0, i32 0, i32 0, i32 0, i32 0, i32 0, i32 2 ; [#uses=2 type=i8**]
  %456 = bitcast %"class.std::__ccr1::basic_string"* %28 to i8* ; [#uses=2 type=i8*]
  %457 = getelementptr inbounds %"class.std::__ccr1::basic_string", %"class.std::__ccr1::basic_string"* %26, i32 0, i32 0, i32 0, i32 0, i32 0, i32 0, i32 2 ; [#uses=2 type=i8**]
  %458 = bitcast %"class.std::__ccr1::basic_string"* %27 to i8* ; [#uses=2 type=i8*]
  %459 = getelementptr inbounds %"class.std::__ccr1::basic_string", %"class.std::__ccr1::basic_string"* %28, i32 0, i32 0, i32 0, i32 0, i32 0, i32 0, i32 2 ; [#uses=2 type=i8**]
  %460 = getelementptr inbounds %"class.std::__ccr1::basic_string", %"class.std::__ccr1::basic_string"* %27, i32 0, i32 0, i32 0, i32 0, i32 0, i32 0, i32 2 ; [#uses=2 type=i8**]
  %461 = bitcast %"class.std::__ccr1::basic_string"* %18 to i8* ; [#uses=2 type=i8*]
  %462 = getelementptr inbounds %"class.std::__ccr1::basic_string", %"class.std::__ccr1::basic_string"* %19, i32 0, i32 0, i32 0, i32 0, i32 0, i32 0, i32 2 ; [#uses=2 type=i8**]
  %463 = getelementptr inbounds %"class.std::__ccr1::basic_string", %"class.std::__ccr1::basic_string"* %0, i32 0, i32 0, i32 0, i32 0, i32 0, i32 0, i32 2 ; [#uses=2 type=i8**]
  %464 = getelementptr inbounds %"class.std::__ccr1::basic_string", %"class.std::__ccr1::basic_string"* %0, i32 0, i32 0, i32 0, i32 0, i32 0, i32 0, i32 1 ; [#uses=2 type=i32*]
  %465 = getelementptr inbounds %"class.std::__ccr1::basic_string", %"class.std::__ccr1::basic_string"* %18, i32 0, i32 0, i32 0, i32 0, i32 0, i32 0, i32 2 ; [#uses=2 type=i8**]
  %466 = getelementptr inbounds %"class.std::__ccr1::basic_string", %"class.std::__ccr1::basic_string"* %21, i32 0, i32 0, i32 0, i32 0, i32 0, i32 0, i32 2 ; [#uses=3 type=i8**]
  %467 = bitcast %"class.std::__ccr1::basic_string"* %30 to i8* ; [#uses=4 type=i8*]
  %468 = bitcast %"class.std::__ccr1::basic_string"* %31 to i8* ; [#uses=5 type=i8*]
  %469 = getelementptr inbounds %"class.std::__ccr1::basic_string", %"class.std::__ccr1::basic_string"* %21, i32 0, i32 0, i32 0, i32 0, i32 0, i32 0, i32 1 ; [#uses=1 type=i32*]
  %470 = bitcast %"class.std::__ccr1::basic_string"* %33 to i8* ; [#uses=2 type=i8*]
  %471 = bitcast %"class.std::__ccr1::basic_string"* %32 to i8* ; [#uses=2 type=i8*]
  %472 = getelementptr inbounds %"class.std::__ccr1::basic_string", %"class.std::__ccr1::basic_string"* %33, i32 0, i32 0, i32 0, i32 0, i32 0, i32 0, i32 2 ; [#uses=2 type=i8**]
  %473 = bitcast %"class.std::__ccr1::basic_string"* %34 to i8* ; [#uses=5 type=i8*]
  %474 = getelementptr inbounds %"class.std::__ccr1::basic_string", %"class.std::__ccr1::basic_string"* %32, i32 0, i32 0, i32 0, i32 0, i32 0, i32 0, i32 2 ; [#uses=2 type=i8**]
  %475 = bitcast %"class.std::__ccr1::basic_string"* %36 to i8* ; [#uses=2 type=i8*]
  %476 = bitcast %"class.std::__ccr1::basic_string"* %35 to i8* ; [#uses=2 type=i8*]
  %477 = getelementptr inbounds %"class.std::__ccr1::basic_string", %"class.std::__ccr1::basic_string"* %36, i32 0, i32 0, i32 0, i32 0, i32 0, i32 0, i32 2 ; [#uses=2 type=i8**]
  %478 = getelementptr inbounds %"class.std::__ccr1::basic_string", %"class.std::__ccr1::basic_string"* %35, i32 0, i32 0, i32 0, i32 0, i32 0, i32 0, i32 2 ; [#uses=2 type=i8**]
  %479 = bitcast %"class.std::__ccr1::basic_string"* %37 to i8* ; [#uses=4 type=i8*]
  %480 = bitcast %"class.std::__ccr1::basic_string"* %8 to %"class.std::__ccr1::allocator"* ; [#uses=1 type=%"class.std::__ccr1::allocator"*]
  %481 = bitcast %"class.std::__ccr1::basic_string"* %38 to i8* ; [#uses=4 type=i8*]
  br label %504

; <label>:482:                                    ; preds = %496, %414
  %483 = phi i8 [ %401, %414 ], [ %497, %496 ]    ; [#uses=1 type=i8]
  %484 = phi i64 [ 0, %414 ], [ %494, %496 ]      ; [#uses=2 type=i64]
  %485 = trunc i64 %484 to i32                    ; [#uses=1 type=i32]
  %486 = and i8 %483, 1                           ; [#uses=1 type=i8]
  %487 = icmp eq i8 %486, 0                       ; [#uses=1 type=i1]
  br i1 %487, label %490, label %488

; <label>:488:                                    ; preds = %482
  %489 = load i8*, i8** %418, align 4, !tbaa !4   ; [#uses=1 type=i8*]
  br label %490

; <label>:490:                                    ; preds = %482, %488
  %491 = phi i8* [ %489, %488 ], [ %416, %482 ]   ; [#uses=1 type=i8*]
  %492 = getelementptr inbounds i8, i8* %491, i32 %485 ; [#uses=1 type=i8*]
  invoke void @_ZNSt6__ccr15dequeIcNS_9allocatorIcEEE9push_backERKc(%"class.std::__ccr1::deque"* nonnull %417, i8* nonnull dereferenceable(1) %492) #13
          to label %493 unwind label %498

; <label>:493:                                    ; preds = %490
  %494 = add nuw nsw i64 %484, 1                  ; [#uses=2 type=i64]
  %495 = icmp ult i64 %494, %412                  ; [#uses=1 type=i1]
  br i1 %495, label %496, label %419

; <label>:496:                                    ; preds = %493
  %497 = load i8, i8* %73, align 4, !tbaa !4      ; [#uses=1 type=i8]
  br label %482

; <label>:498:                                    ; preds = %490
  %499 = landingpad { i8*, i32 }
          cleanup                                 ; [#uses=2 type={ i8*, i32 }]
  %500 = extractvalue { i8*, i32 } %499, 0        ; [#uses=1 type=i8*]
  %501 = extractvalue { i8*, i32 } %499, 1        ; [#uses=1 type=i32]
  br label %1232

; <label>:502:                                    ; preds = %1062, %410, %419
  %503 = invoke %"class.std::__ccr1::basic_string"* @_ZNSt6__ccr112basic_stringIcNS_11char_traitsIcEENS_9allocatorIcEEEC1ERKS5_(%"class.std::__ccr1::basic_string"* nonnull %40, %"class.std::__ccr1::basic_string"* nonnull dereferenceable(12) %11) #13
          to label %1065 unwind label %369        ; [#uses=0 type=%"class.std::__ccr1::basic_string"*]

; <label>:504:                                    ; preds = %420, %1062
  %505 = phi i64 [ 0, %420 ], [ %1063, %1062 ]    ; [#uses=2 type=i64]
  call void @llvm.lifetime.start.p0i8(i64 12, i8* nonnull %421) #12
  %506 = load i8**, i8*** %422, align 4, !tbaa !16 ; [#uses=1 type=i8**]
  %507 = load i32, i32* %423, align 4, !tbaa !19  ; [#uses=2 type=i32]
  %508 = lshr i32 %507, 12                        ; [#uses=1 type=i32]
  %509 = getelementptr inbounds i8*, i8** %506, i32 %508 ; [#uses=1 type=i8**]
  %510 = load i8*, i8** %509, align 4, !tbaa !15  ; [#uses=1 type=i8*]
  %511 = and i32 %507, 4095                       ; [#uses=1 type=i32]
  %512 = getelementptr inbounds i8, i8* %510, i32 %511 ; [#uses=1 type=i8*]
  %513 = load i8, i8* %512, align 1, !tbaa !4     ; [#uses=1 type=i8]
  invoke void @_ZNSt6__ccr1plIcNS_11char_traitsIcEENS_9allocatorIcEEEENS_12basic_stringIT_T0_T1_EERKS9_S6_(%"class.std::__ccr1::basic_string"* nonnull sret %15, %"class.std::__ccr1::basic_string"* nonnull dereferenceable(12) %8, i8 zeroext %513) #13
          to label %514 unwind label %581

; <label>:514:                                    ; preds = %504
  %515 = load i8, i8* %104, align 4, !tbaa !4     ; [#uses=1 type=i8]
  %516 = and i8 %515, 1                           ; [#uses=1 type=i8]
  %517 = icmp eq i8 %516, 0                       ; [#uses=1 type=i1]
  br i1 %517, label %520, label %518

; <label>:518:                                    ; preds = %514
  %519 = load i8*, i8** %424, align 4, !tbaa !4   ; [#uses=1 type=i8*]
  store i8 0, i8* %519, align 1, !tbaa !4
  store i32 0, i32* %425, align 4, !tbaa !4
  br label %521

; <label>:520:                                    ; preds = %514
  store i8 0, i8* %106, align 1, !tbaa !4
  store i8 0, i8* %104, align 4, !tbaa !4
  br label %521

; <label>:521:                                    ; preds = %520, %518
  invoke void @_ZNSt6__ccr112basic_stringIcNS_11char_traitsIcEENS_9allocatorIcEEE7reserveEj(%"class.std::__ccr1::basic_string"* nonnull %8, i32 0) #13
          to label %525 unwind label %522

; <label>:522:                                    ; preds = %521
  %523 = landingpad { i8*, i32 }
          catch i8* null                          ; [#uses=1 type={ i8*, i32 }]
  %524 = extractvalue { i8*, i32 } %523, 0        ; [#uses=1 type=i8*]
  call void @__clang_call_terminate(i8* %524) #15
  unreachable

; <label>:525:                                    ; preds = %521
  call void @llvm.memcpy.p0i8.p0i8.i32(i8* nonnull %104, i8* nonnull %421, i32 12, i32 4, i1 false) #12, !tbaa.struct !12
  %526 = load i8**, i8*** %422, align 4, !tbaa !16 ; [#uses=1 type=i8**]
  %527 = load i32, i32* %423, align 4, !tbaa !19  ; [#uses=1 type=i32]
  %528 = load i32, i32* %426, align 4, !tbaa !13  ; [#uses=1 type=i32]
  call void @llvm.lifetime.end.p0i8(i64 12, i8* nonnull %421) #12
  %529 = add i32 %528, -1                         ; [#uses=1 type=i32]
  store i32 %529, i32* %426, align 4, !tbaa !13
  %530 = add i32 %527, 1                          ; [#uses=2 type=i32]
  store i32 %530, i32* %423, align 4, !tbaa !19
  %531 = icmp ugt i32 %530, 8191                  ; [#uses=1 type=i1]
  br i1 %531, label %532, label %538

; <label>:532:                                    ; preds = %525
  %533 = load i8*, i8** %526, align 4, !tbaa !15  ; [#uses=1 type=i8*]
  call void @_ZdlPv(i8* %533) #14
  %534 = load i8**, i8*** %422, align 4, !tbaa !16 ; [#uses=1 type=i8**]
  %535 = getelementptr inbounds i8*, i8** %534, i32 1 ; [#uses=1 type=i8**]
  store i8** %535, i8*** %422, align 4, !tbaa !16
  %536 = load i32, i32* %423, align 4, !tbaa !19  ; [#uses=1 type=i32]
  %537 = add i32 %536, -4096                      ; [#uses=1 type=i32]
  store i32 %537, i32* %423, align 4, !tbaa !19
  br label %538

; <label>:538:                                    ; preds = %525, %532
  %539 = invoke %"class.std::__ccr1::basic_string"* @_ZNSt6__ccr112basic_stringIcNS_11char_traitsIcEENS_9allocatorIcEEEC1ERKS5_(%"class.std::__ccr1::basic_string"* nonnull %16, %"class.std::__ccr1::basic_string"* nonnull dereferenceable(12) %8) #13
          to label %540 unwind label %585         ; [#uses=0 type=%"class.std::__ccr1::basic_string"*]

; <label>:540:                                    ; preds = %538
  %541 = invoke %"class.std::__ccr1::basic_string"* @_ZNSt6__ccr112basic_stringIcNS_11char_traitsIcEENS_9allocatorIcEEEC1ERKS5_(%"class.std::__ccr1::basic_string"* nonnull %17, %"class.std::__ccr1::basic_string"* nonnull dereferenceable(12) %3) #13
          to label %542 unwind label %589         ; [#uses=0 type=%"class.std::__ccr1::basic_string"*]

; <label>:542:                                    ; preds = %540
  %543 = invoke i32 @_ZN9ultra_num5ucompENSt6__ccr112basic_stringIcNS0_11char_traitsIcEENS0_9allocatorIcEEEES6_x(%class.ultra_num* %1, %"class.std::__ccr1::basic_string"* nonnull %16, %"class.std::__ccr1::basic_string"* nonnull %17, i64 %4) #13
          to label %544 unwind label %593         ; [#uses=1 type=i32]

; <label>:544:                                    ; preds = %542
  %545 = icmp eq i32 %543, 1                      ; [#uses=1 type=i1]
  br i1 %545, label %565, label %546

; <label>:546:                                    ; preds = %544
  %547 = invoke %"class.std::__ccr1::basic_string"* @_ZNSt6__ccr112basic_stringIcNS_11char_traitsIcEENS_9allocatorIcEEEC1ERKS5_(%"class.std::__ccr1::basic_string"* nonnull %18, %"class.std::__ccr1::basic_string"* nonnull dereferenceable(12) %8) #13
          to label %548 unwind label %593         ; [#uses=0 type=%"class.std::__ccr1::basic_string"*]

; <label>:548:                                    ; preds = %546
  %549 = invoke %"class.std::__ccr1::basic_string"* @_ZNSt6__ccr112basic_stringIcNS_11char_traitsIcEENS_9allocatorIcEEEC1ERKS5_(%"class.std::__ccr1::basic_string"* nonnull %19, %"class.std::__ccr1::basic_string"* nonnull dereferenceable(12) %3) #13
          to label %550 unwind label %597         ; [#uses=0 type=%"class.std::__ccr1::basic_string"*]

; <label>:550:                                    ; preds = %548
  %551 = invoke i32 @_ZN9ultra_num5ucompENSt6__ccr112basic_stringIcNS0_11char_traitsIcEENS0_9allocatorIcEEEES6_x(%class.ultra_num* %1, %"class.std::__ccr1::basic_string"* nonnull %18, %"class.std::__ccr1::basic_string"* nonnull %19, i64 %4) #13
          to label %552 unwind label %601         ; [#uses=1 type=i32]

; <label>:552:                                    ; preds = %550
  %553 = icmp eq i32 %551, 0                      ; [#uses=2 type=i1]
  %554 = load i8, i8* %439, align 4, !tbaa !4     ; [#uses=1 type=i8]
  %555 = and i8 %554, 1                           ; [#uses=1 type=i8]
  %556 = icmp eq i8 %555, 0                       ; [#uses=1 type=i1]
  br i1 %556, label %559, label %557

; <label>:557:                                    ; preds = %552
  %558 = load i8*, i8** %462, align 4, !tbaa !4   ; [#uses=1 type=i8*]
  call void @_ZdlPv(i8* %558) #14
  br label %559

; <label>:559:                                    ; preds = %552, %557
  %560 = load i8, i8* %461, align 4, !tbaa !4     ; [#uses=1 type=i8]
  %561 = and i8 %560, 1                           ; [#uses=1 type=i8]
  %562 = icmp eq i8 %561, 0                       ; [#uses=1 type=i1]
  br i1 %562, label %565, label %563

; <label>:563:                                    ; preds = %559
  %564 = load i8*, i8** %465, align 4, !tbaa !4   ; [#uses=1 type=i8*]
  call void @_ZdlPv(i8* %564) #14
  br label %565

; <label>:565:                                    ; preds = %563, %559, %544
  %566 = phi i1 [ true, %544 ], [ %553, %559 ], [ %553, %563 ] ; [#uses=1 type=i1]
  %567 = load i8, i8* %427, align 4, !tbaa !4     ; [#uses=1 type=i8]
  %568 = and i8 %567, 1                           ; [#uses=1 type=i8]
  %569 = icmp eq i8 %568, 0                       ; [#uses=1 type=i1]
  br i1 %569, label %572, label %570

; <label>:570:                                    ; preds = %565
  %571 = load i8*, i8** %429, align 4, !tbaa !4   ; [#uses=1 type=i8*]
  call void @_ZdlPv(i8* %571) #14
  br label %572

; <label>:572:                                    ; preds = %565, %570
  %573 = load i8, i8* %428, align 4, !tbaa !4     ; [#uses=1 type=i8]
  %574 = and i8 %573, 1                           ; [#uses=1 type=i8]
  %575 = icmp eq i8 %574, 0                       ; [#uses=1 type=i1]
  br i1 %575, label %578, label %576

; <label>:576:                                    ; preds = %572
  %577 = load i8*, i8** %430, align 4, !tbaa !4   ; [#uses=1 type=i8*]
  call void @_ZdlPv(i8* %577) #14
  br label %578

; <label>:578:                                    ; preds = %572, %576
  br i1 %566, label %579, label %1045

; <label>:579:                                    ; preds = %578
  call void @llvm.lifetime.start.p0i8(i64 12, i8* nonnull %431) #12
  call void @llvm.memset.p0i8.i64(i8* nonnull %431, i8 0, i64 12, i32 4, i1 false)
  call void @llvm.lifetime.start.p0i8(i64 12, i8* nonnull %434) #12
  call void @llvm.memset.p0i8.i64(i8* nonnull %434, i8 0, i64 12, i32 4, i1 false)
  br i1 %437, label %580, label %1009

; <label>:580:                                    ; preds = %579
  br label %634

; <label>:581:                                    ; preds = %504
  %582 = landingpad { i8*, i32 }
          cleanup                                 ; [#uses=2 type={ i8*, i32 }]
  %583 = extractvalue { i8*, i32 } %582, 0        ; [#uses=1 type=i8*]
  %584 = extractvalue { i8*, i32 } %582, 1        ; [#uses=1 type=i32]
  call void @llvm.lifetime.end.p0i8(i64 12, i8* nonnull %421) #12
  br label %1232

; <label>:585:                                    ; preds = %538
  %586 = landingpad { i8*, i32 }
          cleanup                                 ; [#uses=2 type={ i8*, i32 }]
  %587 = extractvalue { i8*, i32 } %586, 0        ; [#uses=1 type=i8*]
  %588 = extractvalue { i8*, i32 } %586, 1        ; [#uses=1 type=i32]
  br label %1232

; <label>:589:                                    ; preds = %540
  %590 = landingpad { i8*, i32 }
          cleanup                                 ; [#uses=2 type={ i8*, i32 }]
  %591 = extractvalue { i8*, i32 } %590, 0        ; [#uses=1 type=i8*]
  %592 = extractvalue { i8*, i32 } %590, 1        ; [#uses=1 type=i32]
  br label %626

; <label>:593:                                    ; preds = %546, %542
  %594 = landingpad { i8*, i32 }
          cleanup                                 ; [#uses=2 type={ i8*, i32 }]
  %595 = extractvalue { i8*, i32 } %594, 0        ; [#uses=1 type=i8*]
  %596 = extractvalue { i8*, i32 } %594, 1        ; [#uses=1 type=i32]
  br label %618

; <label>:597:                                    ; preds = %548
  %598 = landingpad { i8*, i32 }
          cleanup                                 ; [#uses=2 type={ i8*, i32 }]
  %599 = extractvalue { i8*, i32 } %598, 0        ; [#uses=1 type=i8*]
  %600 = extractvalue { i8*, i32 } %598, 1        ; [#uses=1 type=i32]
  br label %610

; <label>:601:                                    ; preds = %550
  %602 = landingpad { i8*, i32 }
          cleanup                                 ; [#uses=2 type={ i8*, i32 }]
  %603 = extractvalue { i8*, i32 } %602, 1        ; [#uses=2 type=i32]
  %604 = extractvalue { i8*, i32 } %602, 0        ; [#uses=2 type=i8*]
  %605 = load i8, i8* %439, align 4, !tbaa !4     ; [#uses=1 type=i8]
  %606 = and i8 %605, 1                           ; [#uses=1 type=i8]
  %607 = icmp eq i8 %606, 0                       ; [#uses=1 type=i1]
  br i1 %607, label %610, label %608

; <label>:608:                                    ; preds = %601
  %609 = load i8*, i8** %462, align 4, !tbaa !4   ; [#uses=1 type=i8*]
  call void @_ZdlPv(i8* %609) #14
  br label %610

; <label>:610:                                    ; preds = %608, %601, %597
  %611 = phi i8* [ %599, %597 ], [ %604, %601 ], [ %604, %608 ] ; [#uses=2 type=i8*]
  %612 = phi i32 [ %600, %597 ], [ %603, %601 ], [ %603, %608 ] ; [#uses=2 type=i32]
  %613 = load i8, i8* %461, align 4, !tbaa !4     ; [#uses=1 type=i8]
  %614 = and i8 %613, 1                           ; [#uses=1 type=i8]
  %615 = icmp eq i8 %614, 0                       ; [#uses=1 type=i1]
  br i1 %615, label %618, label %616

; <label>:616:                                    ; preds = %610
  %617 = load i8*, i8** %465, align 4, !tbaa !4   ; [#uses=1 type=i8*]
  call void @_ZdlPv(i8* %617) #14
  br label %618

; <label>:618:                                    ; preds = %616, %610, %593
  %619 = phi i8* [ %595, %593 ], [ %611, %610 ], [ %611, %616 ] ; [#uses=2 type=i8*]
  %620 = phi i32 [ %596, %593 ], [ %612, %610 ], [ %612, %616 ] ; [#uses=2 type=i32]
  %621 = load i8, i8* %427, align 4, !tbaa !4     ; [#uses=1 type=i8]
  %622 = and i8 %621, 1                           ; [#uses=1 type=i8]
  %623 = icmp eq i8 %622, 0                       ; [#uses=1 type=i1]
  br i1 %623, label %626, label %624

; <label>:624:                                    ; preds = %618
  %625 = load i8*, i8** %429, align 4, !tbaa !4   ; [#uses=1 type=i8*]
  call void @_ZdlPv(i8* %625) #14
  br label %626

; <label>:626:                                    ; preds = %624, %618, %589
  %627 = phi i8* [ %591, %589 ], [ %619, %618 ], [ %619, %624 ] ; [#uses=2 type=i8*]
  %628 = phi i32 [ %592, %589 ], [ %620, %618 ], [ %620, %624 ] ; [#uses=2 type=i32]
  %629 = load i8, i8* %428, align 4, !tbaa !4     ; [#uses=1 type=i8]
  %630 = and i8 %629, 1                           ; [#uses=1 type=i8]
  %631 = icmp eq i8 %630, 0                       ; [#uses=1 type=i1]
  br i1 %631, label %1232, label %632

; <label>:632:                                    ; preds = %626
  %633 = load i8*, i8** %430, align 4, !tbaa !4   ; [#uses=1 type=i8*]
  call void @_ZdlPv(i8* %633) #14
  br label %1232

; <label>:634:                                    ; preds = %580, %1006
  %635 = phi i64 [ %1007, %1006 ], [ 0, %580 ]    ; [#uses=7 type=i64]
  %636 = icmp ult i64 %635, 10                    ; [#uses=1 type=i1]
  br i1 %636, label %637, label %654

; <label>:637:                                    ; preds = %634
  call void @llvm.lifetime.start.p0i8(i64 12, i8* nonnull %441) #12
  invoke void @_ZNSt6__ccr19to_stringEx(%"class.std::__ccr1::basic_string"* nonnull sret %22, i64 %635) #13
          to label %638 unwind label %650

; <label>:638:                                    ; preds = %637
  %639 = load i8, i8* %431, align 4, !tbaa !4     ; [#uses=1 type=i8]
  %640 = and i8 %639, 1                           ; [#uses=1 type=i8]
  %641 = icmp eq i8 %640, 0                       ; [#uses=1 type=i1]
  br i1 %641, label %644, label %642

; <label>:642:                                    ; preds = %638
  %643 = load i8*, i8** %443, align 4, !tbaa !4   ; [#uses=1 type=i8*]
  store i8 0, i8* %643, align 1, !tbaa !4
  store i32 0, i32* %444, align 4, !tbaa !4
  br label %645

; <label>:644:                                    ; preds = %638
  store i8 0, i8* %433, align 1, !tbaa !4
  store i8 0, i8* %431, align 4, !tbaa !4
  br label %645

; <label>:645:                                    ; preds = %644, %642
  invoke void @_ZNSt6__ccr112basic_stringIcNS_11char_traitsIcEENS_9allocatorIcEEE7reserveEj(%"class.std::__ccr1::basic_string"* nonnull %20, i32 0) #13
          to label %649 unwind label %646

; <label>:646:                                    ; preds = %645
  %647 = landingpad { i8*, i32 }
          catch i8* null                          ; [#uses=1 type={ i8*, i32 }]
  %648 = extractvalue { i8*, i32 } %647, 0        ; [#uses=1 type=i8*]
  call void @__clang_call_terminate(i8* %648) #15
  unreachable

; <label>:649:                                    ; preds = %645
  call void @llvm.memcpy.p0i8.p0i8.i32(i8* nonnull %431, i8* nonnull %441, i32 12, i32 4, i1 false) #12, !tbaa.struct !12
  call void @llvm.lifetime.end.p0i8(i64 12, i8* nonnull %441) #12
  br label %666

; <label>:650:                                    ; preds = %637
  %651 = landingpad { i8*, i32 }
          cleanup                                 ; [#uses=2 type={ i8*, i32 }]
  %652 = extractvalue { i8*, i32 } %651, 0        ; [#uses=1 type=i8*]
  %653 = extractvalue { i8*, i32 } %651, 1        ; [#uses=1 type=i32]
  call void @llvm.lifetime.end.p0i8(i64 12, i8* nonnull %441) #12
  br label %1030

; <label>:654:                                    ; preds = %634
  %655 = trunc i64 %635 to i8                     ; [#uses=1 type=i8]
  %656 = add i8 %655, 55                          ; [#uses=1 type=i8]
  %657 = invoke dereferenceable(12) %"class.std::__ccr1::basic_string"* @_ZNSt6__ccr112basic_stringIcNS_11char_traitsIcEENS_9allocatorIcEEEaSEc(%"class.std::__ccr1::basic_string"* nonnull %20, i8 zeroext %656) #13
          to label %666 unwind label %658         ; [#uses=0 type=%"class.std::__ccr1::basic_string"*]

; <label>:658:                                    ; preds = %654, %702
  %659 = landingpad { i8*, i32 }
          cleanup                                 ; [#uses=1 type={ i8*, i32 }]
  br label %662

; <label>:660:                                    ; preds = %842
  %661 = landingpad { i8*, i32 }
          cleanup                                 ; [#uses=1 type={ i8*, i32 }]
  br label %662

; <label>:662:                                    ; preds = %660, %658
  %663 = phi { i8*, i32 } [ %659, %658 ], [ %661, %660 ] ; [#uses=2 type={ i8*, i32 }]
  %664 = extractvalue { i8*, i32 } %663, 0        ; [#uses=1 type=i8*]
  %665 = extractvalue { i8*, i32 } %663, 1        ; [#uses=1 type=i32]
  br label %1030

; <label>:666:                                    ; preds = %654, %649
  call void @llvm.lifetime.start.p0i8(i64 12, i8* nonnull %442) #12
  %667 = invoke %"class.std::__ccr1::basic_string"* @_ZNSt6__ccr112basic_stringIcNS_11char_traitsIcEENS_9allocatorIcEEEC1ERKS5_(%"class.std::__ccr1::basic_string"* nonnull %24, %"class.std::__ccr1::basic_string"* nonnull dereferenceable(12) %3) #13
          to label %668 unwind label %753         ; [#uses=0 type=%"class.std::__ccr1::basic_string"*]

; <label>:668:                                    ; preds = %666
  %669 = invoke %"class.std::__ccr1::basic_string"* @_ZNSt6__ccr112basic_stringIcNS_11char_traitsIcEENS_9allocatorIcEEEC1ERKS5_(%"class.std::__ccr1::basic_string"* nonnull %25, %"class.std::__ccr1::basic_string"* nonnull dereferenceable(12) %20) #13
          to label %670 unwind label %757         ; [#uses=0 type=%"class.std::__ccr1::basic_string"*]

; <label>:670:                                    ; preds = %668
  invoke void @_ZN9ultra_num4umulENSt6__ccr112basic_stringIcNS0_11char_traitsIcEENS0_9allocatorIcEEEES6_x(%"class.std::__ccr1::basic_string"* nonnull sret %23, %class.ultra_num* %1, %"class.std::__ccr1::basic_string"* nonnull %24, %"class.std::__ccr1::basic_string"* nonnull %25, i64 %4) #13
          to label %671 unwind label %761

; <label>:671:                                    ; preds = %670
  %672 = load i8, i8* %442, align 4, !tbaa !4     ; [#uses=2 type=i8]
  %673 = and i8 %672, 1                           ; [#uses=1 type=i8]
  %674 = icmp eq i8 %673, 0                       ; [#uses=2 type=i1]
  %675 = load i8*, i8** %445, align 4             ; [#uses=1 type=i8*]
  %676 = load i32, i32* %446, align 4             ; [#uses=1 type=i32]
  %677 = zext i8 %672 to i32                      ; [#uses=1 type=i32]
  %678 = lshr i32 %677, 1                         ; [#uses=1 type=i32]
  %679 = select i1 %674, i8* %448, i8* %675       ; [#uses=1 type=i8*]
  %680 = select i1 %674, i32 %678, i32 %676       ; [#uses=1 type=i32]
  %681 = invoke dereferenceable(84) %"class.std::__ccr1::basic_ostream"* @_ZNSt6__ccr124__put_character_sequenceIcNS_11char_traitsIcEEEERNS_13basic_ostreamIT_T0_EES7_PKS4_j(%"class.std::__ccr1::basic_ostream"* nonnull dereferenceable(84) @_ZNSt6__ccr14coutE, i8* %679, i32 %680) #13
          to label %682 unwind label %765         ; [#uses=1 type=%"class.std::__ccr1::basic_ostream"*]

; <label>:682:                                    ; preds = %671
  %683 = invoke dereferenceable(84) %"class.std::__ccr1::basic_ostream"* @_ZNSt6__ccr124__put_character_sequenceIcNS_11char_traitsIcEEEERNS_13basic_ostreamIT_T0_EES7_PKS4_j(%"class.std::__ccr1::basic_ostream"* nonnull dereferenceable(84) %681, i8* getelementptr inbounds ([2 x i8], [2 x i8]* @.str.4, i32 0, i32 0), i32 1) #13
          to label %684 unwind label %765         ; [#uses=0 type=%"class.std::__ccr1::basic_ostream"*]

; <label>:684:                                    ; preds = %682
  %685 = load i8, i8* %442, align 4, !tbaa !4     ; [#uses=1 type=i8]
  %686 = and i8 %685, 1                           ; [#uses=1 type=i8]
  %687 = icmp eq i8 %686, 0                       ; [#uses=1 type=i1]
  br i1 %687, label %690, label %688

; <label>:688:                                    ; preds = %684
  %689 = load i8*, i8** %445, align 4, !tbaa !4   ; [#uses=1 type=i8*]
  call void @_ZdlPv(i8* %689) #14
  br label %690

; <label>:690:                                    ; preds = %684, %688
  %691 = load i8, i8* %449, align 4, !tbaa !4     ; [#uses=1 type=i8]
  %692 = and i8 %691, 1                           ; [#uses=1 type=i8]
  %693 = icmp eq i8 %692, 0                       ; [#uses=1 type=i1]
  br i1 %693, label %696, label %694

; <label>:694:                                    ; preds = %690
  %695 = load i8*, i8** %451, align 4, !tbaa !4   ; [#uses=1 type=i8*]
  call void @_ZdlPv(i8* %695) #14
  br label %696

; <label>:696:                                    ; preds = %690, %694
  %697 = load i8, i8* %450, align 4, !tbaa !4     ; [#uses=1 type=i8]
  %698 = and i8 %697, 1                           ; [#uses=1 type=i8]
  %699 = icmp eq i8 %698, 0                       ; [#uses=1 type=i1]
  br i1 %699, label %702, label %700

; <label>:700:                                    ; preds = %696
  %701 = load i8*, i8** %452, align 4, !tbaa !4   ; [#uses=1 type=i8*]
  call void @_ZdlPv(i8* %701) #14
  br label %702

; <label>:702:                                    ; preds = %696, %700
  call void @llvm.lifetime.end.p0i8(i64 12, i8* nonnull %442) #12
  %703 = invoke %"class.std::__ccr1::basic_string"* @_ZNSt6__ccr112basic_stringIcNS_11char_traitsIcEENS_9allocatorIcEEEC1ERKS5_(%"class.std::__ccr1::basic_string"* nonnull %27, %"class.std::__ccr1::basic_string"* nonnull dereferenceable(12) %3) #13
          to label %704 unwind label %658         ; [#uses=0 type=%"class.std::__ccr1::basic_string"*]

; <label>:704:                                    ; preds = %702
  %705 = invoke %"class.std::__ccr1::basic_string"* @_ZNSt6__ccr112basic_stringIcNS_11char_traitsIcEENS_9allocatorIcEEEC1ERKS5_(%"class.std::__ccr1::basic_string"* nonnull %28, %"class.std::__ccr1::basic_string"* nonnull dereferenceable(12) %20) #13
          to label %706 unwind label %793         ; [#uses=0 type=%"class.std::__ccr1::basic_string"*]

; <label>:706:                                    ; preds = %704
  invoke void @_ZN9ultra_num4umulENSt6__ccr112basic_stringIcNS0_11char_traitsIcEENS0_9allocatorIcEEEES6_x(%"class.std::__ccr1::basic_string"* nonnull sret %26, %class.ultra_num* %1, %"class.std::__ccr1::basic_string"* nonnull %27, %"class.std::__ccr1::basic_string"* nonnull %28, i64 %4) #13
          to label %707 unwind label %797

; <label>:707:                                    ; preds = %706
  %708 = invoke %"class.std::__ccr1::basic_string"* @_ZNSt6__ccr112basic_stringIcNS_11char_traitsIcEENS_9allocatorIcEEEC1ERKS5_(%"class.std::__ccr1::basic_string"* nonnull %29, %"class.std::__ccr1::basic_string"* nonnull dereferenceable(12) %8) #13
          to label %709 unwind label %801         ; [#uses=0 type=%"class.std::__ccr1::basic_string"*]

; <label>:709:                                    ; preds = %707
  %710 = invoke i32 @_ZN9ultra_num5ucompENSt6__ccr112basic_stringIcNS0_11char_traitsIcEENS0_9allocatorIcEEEES6_x(%class.ultra_num* %1, %"class.std::__ccr1::basic_string"* nonnull %26, %"class.std::__ccr1::basic_string"* nonnull %29, i64 %4) #13
          to label %711 unwind label %805         ; [#uses=1 type=i32]

; <label>:711:                                    ; preds = %709
  %712 = icmp eq i32 %710, 1                      ; [#uses=1 type=i1]
  %713 = load i8, i8* %453, align 4, !tbaa !4     ; [#uses=1 type=i8]
  %714 = and i8 %713, 1                           ; [#uses=1 type=i8]
  %715 = icmp eq i8 %714, 0                       ; [#uses=1 type=i1]
  br i1 %715, label %718, label %716

; <label>:716:                                    ; preds = %711
  %717 = load i8*, i8** %455, align 4, !tbaa !4   ; [#uses=1 type=i8*]
  call void @_ZdlPv(i8* %717) #14
  br label %718

; <label>:718:                                    ; preds = %711, %716
  %719 = load i8, i8* %454, align 4, !tbaa !4     ; [#uses=1 type=i8]
  %720 = and i8 %719, 1                           ; [#uses=1 type=i8]
  %721 = icmp eq i8 %720, 0                       ; [#uses=1 type=i1]
  br i1 %721, label %724, label %722

; <label>:722:                                    ; preds = %718
  %723 = load i8*, i8** %457, align 4, !tbaa !4   ; [#uses=1 type=i8*]
  call void @_ZdlPv(i8* %723) #14
  br label %724

; <label>:724:                                    ; preds = %718, %722
  %725 = load i8, i8* %456, align 4, !tbaa !4     ; [#uses=1 type=i8]
  %726 = and i8 %725, 1                           ; [#uses=1 type=i8]
  %727 = icmp eq i8 %726, 0                       ; [#uses=1 type=i1]
  br i1 %727, label %730, label %728

; <label>:728:                                    ; preds = %724
  %729 = load i8*, i8** %459, align 4, !tbaa !4   ; [#uses=1 type=i8*]
  call void @_ZdlPv(i8* %729) #14
  br label %730

; <label>:730:                                    ; preds = %724, %728
  %731 = load i8, i8* %458, align 4, !tbaa !4     ; [#uses=1 type=i8]
  %732 = and i8 %731, 1                           ; [#uses=1 type=i8]
  %733 = icmp eq i8 %732, 0                       ; [#uses=1 type=i1]
  br i1 %733, label %736, label %734

; <label>:734:                                    ; preds = %730
  %735 = load i8*, i8** %460, align 4, !tbaa !4   ; [#uses=1 type=i8*]
  call void @_ZdlPv(i8* %735) #14
  br label %736

; <label>:736:                                    ; preds = %730, %734
  br i1 %712, label %737, label %1006

; <label>:737:                                    ; preds = %736
  %738 = icmp ult i64 %635, 11                    ; [#uses=1 type=i1]
  br i1 %738, label %739, label %842

; <label>:739:                                    ; preds = %737
  %740 = add nsw i64 %635, -1                     ; [#uses=1 type=i64]
  call void @llvm.lifetime.start.p0i8(i64 12, i8* nonnull %467) #12
  invoke void @_ZNSt6__ccr19to_stringEx(%"class.std::__ccr1::basic_string"* nonnull sret %30, i64 %740) #13
          to label %741 unwind label %838

; <label>:741:                                    ; preds = %739
  %742 = load i8, i8* %431, align 4, !tbaa !4     ; [#uses=1 type=i8]
  %743 = and i8 %742, 1                           ; [#uses=1 type=i8]
  %744 = icmp eq i8 %743, 0                       ; [#uses=1 type=i1]
  br i1 %744, label %747, label %745

; <label>:745:                                    ; preds = %741
  %746 = load i8*, i8** %443, align 4, !tbaa !4   ; [#uses=1 type=i8*]
  store i8 0, i8* %746, align 1, !tbaa !4
  store i32 0, i32* %444, align 4, !tbaa !4
  br label %748

; <label>:747:                                    ; preds = %741
  store i8 0, i8* %433, align 1, !tbaa !4
  store i8 0, i8* %431, align 4, !tbaa !4
  br label %748

; <label>:748:                                    ; preds = %747, %745
  invoke void @_ZNSt6__ccr112basic_stringIcNS_11char_traitsIcEENS_9allocatorIcEEE7reserveEj(%"class.std::__ccr1::basic_string"* nonnull %20, i32 0) #13
          to label %752 unwind label %749

; <label>:749:                                    ; preds = %748
  %750 = landingpad { i8*, i32 }
          catch i8* null                          ; [#uses=1 type={ i8*, i32 }]
  %751 = extractvalue { i8*, i32 } %750, 0        ; [#uses=1 type=i8*]
  call void @__clang_call_terminate(i8* %751) #15
  unreachable

; <label>:752:                                    ; preds = %748
  call void @llvm.memcpy.p0i8.p0i8.i32(i8* nonnull %431, i8* nonnull %467, i32 12, i32 4, i1 false) #12, !tbaa.struct !12
  call void @llvm.lifetime.end.p0i8(i64 12, i8* nonnull %467) #12
  br label %846

; <label>:753:                                    ; preds = %666
  %754 = landingpad { i8*, i32 }
          cleanup                                 ; [#uses=2 type={ i8*, i32 }]
  %755 = extractvalue { i8*, i32 } %754, 0        ; [#uses=1 type=i8*]
  %756 = extractvalue { i8*, i32 } %754, 1        ; [#uses=1 type=i32]
  br label %790

; <label>:757:                                    ; preds = %668
  %758 = landingpad { i8*, i32 }
          cleanup                                 ; [#uses=2 type={ i8*, i32 }]
  %759 = extractvalue { i8*, i32 } %758, 0        ; [#uses=1 type=i8*]
  %760 = extractvalue { i8*, i32 } %758, 1        ; [#uses=1 type=i32]
  br label %782

; <label>:761:                                    ; preds = %670
  %762 = landingpad { i8*, i32 }
          cleanup                                 ; [#uses=2 type={ i8*, i32 }]
  %763 = extractvalue { i8*, i32 } %762, 0        ; [#uses=1 type=i8*]
  %764 = extractvalue { i8*, i32 } %762, 1        ; [#uses=1 type=i32]
  br label %774

; <label>:765:                                    ; preds = %682, %671
  %766 = landingpad { i8*, i32 }
          cleanup                                 ; [#uses=2 type={ i8*, i32 }]
  %767 = extractvalue { i8*, i32 } %766, 0        ; [#uses=2 type=i8*]
  %768 = extractvalue { i8*, i32 } %766, 1        ; [#uses=2 type=i32]
  %769 = load i8, i8* %442, align 4, !tbaa !4     ; [#uses=1 type=i8]
  %770 = and i8 %769, 1                           ; [#uses=1 type=i8]
  %771 = icmp eq i8 %770, 0                       ; [#uses=1 type=i1]
  br i1 %771, label %774, label %772

; <label>:772:                                    ; preds = %765
  %773 = load i8*, i8** %445, align 4, !tbaa !4   ; [#uses=1 type=i8*]
  call void @_ZdlPv(i8* %773) #14
  br label %774

; <label>:774:                                    ; preds = %772, %765, %761
  %775 = phi i8* [ %763, %761 ], [ %767, %765 ], [ %767, %772 ] ; [#uses=2 type=i8*]
  %776 = phi i32 [ %764, %761 ], [ %768, %765 ], [ %768, %772 ] ; [#uses=2 type=i32]
  %777 = load i8, i8* %449, align 4, !tbaa !4     ; [#uses=1 type=i8]
  %778 = and i8 %777, 1                           ; [#uses=1 type=i8]
  %779 = icmp eq i8 %778, 0                       ; [#uses=1 type=i1]
  br i1 %779, label %782, label %780

; <label>:780:                                    ; preds = %774
  %781 = load i8*, i8** %451, align 4, !tbaa !4   ; [#uses=1 type=i8*]
  call void @_ZdlPv(i8* %781) #14
  br label %782

; <label>:782:                                    ; preds = %780, %774, %757
  %783 = phi i8* [ %759, %757 ], [ %775, %774 ], [ %775, %780 ] ; [#uses=2 type=i8*]
  %784 = phi i32 [ %760, %757 ], [ %776, %774 ], [ %776, %780 ] ; [#uses=2 type=i32]
  %785 = load i8, i8* %450, align 4, !tbaa !4     ; [#uses=1 type=i8]
  %786 = and i8 %785, 1                           ; [#uses=1 type=i8]
  %787 = icmp eq i8 %786, 0                       ; [#uses=1 type=i1]
  br i1 %787, label %790, label %788

; <label>:788:                                    ; preds = %782
  %789 = load i8*, i8** %452, align 4, !tbaa !4   ; [#uses=1 type=i8*]
  call void @_ZdlPv(i8* %789) #14
  br label %790

; <label>:790:                                    ; preds = %788, %782, %753
  %791 = phi i8* [ %755, %753 ], [ %783, %782 ], [ %783, %788 ] ; [#uses=1 type=i8*]
  %792 = phi i32 [ %756, %753 ], [ %784, %782 ], [ %784, %788 ] ; [#uses=1 type=i32]
  call void @llvm.lifetime.end.p0i8(i64 12, i8* nonnull %442) #12
  br label %1030

; <label>:793:                                    ; preds = %704
  %794 = landingpad { i8*, i32 }
          cleanup                                 ; [#uses=2 type={ i8*, i32 }]
  %795 = extractvalue { i8*, i32 } %794, 0        ; [#uses=1 type=i8*]
  %796 = extractvalue { i8*, i32 } %794, 1        ; [#uses=1 type=i32]
  br label %830

; <label>:797:                                    ; preds = %706
  %798 = landingpad { i8*, i32 }
          cleanup                                 ; [#uses=2 type={ i8*, i32 }]
  %799 = extractvalue { i8*, i32 } %798, 0        ; [#uses=1 type=i8*]
  %800 = extractvalue { i8*, i32 } %798, 1        ; [#uses=1 type=i32]
  br label %822

; <label>:801:                                    ; preds = %707
  %802 = landingpad { i8*, i32 }
          cleanup                                 ; [#uses=2 type={ i8*, i32 }]
  %803 = extractvalue { i8*, i32 } %802, 0        ; [#uses=1 type=i8*]
  %804 = extractvalue { i8*, i32 } %802, 1        ; [#uses=1 type=i32]
  br label %814

; <label>:805:                                    ; preds = %709
  %806 = landingpad { i8*, i32 }
          cleanup                                 ; [#uses=2 type={ i8*, i32 }]
  %807 = extractvalue { i8*, i32 } %806, 0        ; [#uses=2 type=i8*]
  %808 = extractvalue { i8*, i32 } %806, 1        ; [#uses=2 type=i32]
  %809 = load i8, i8* %453, align 4, !tbaa !4     ; [#uses=1 type=i8]
  %810 = and i8 %809, 1                           ; [#uses=1 type=i8]
  %811 = icmp eq i8 %810, 0                       ; [#uses=1 type=i1]
  br i1 %811, label %814, label %812

; <label>:812:                                    ; preds = %805
  %813 = load i8*, i8** %455, align 4, !tbaa !4   ; [#uses=1 type=i8*]
  call void @_ZdlPv(i8* %813) #14
  br label %814

; <label>:814:                                    ; preds = %812, %805, %801
  %815 = phi i8* [ %803, %801 ], [ %807, %805 ], [ %807, %812 ] ; [#uses=2 type=i8*]
  %816 = phi i32 [ %804, %801 ], [ %808, %805 ], [ %808, %812 ] ; [#uses=2 type=i32]
  %817 = load i8, i8* %454, align 4, !tbaa !4     ; [#uses=1 type=i8]
  %818 = and i8 %817, 1                           ; [#uses=1 type=i8]
  %819 = icmp eq i8 %818, 0                       ; [#uses=1 type=i1]
  br i1 %819, label %822, label %820

; <label>:820:                                    ; preds = %814
  %821 = load i8*, i8** %457, align 4, !tbaa !4   ; [#uses=1 type=i8*]
  call void @_ZdlPv(i8* %821) #14
  br label %822

; <label>:822:                                    ; preds = %820, %814, %797
  %823 = phi i8* [ %799, %797 ], [ %815, %814 ], [ %815, %820 ] ; [#uses=2 type=i8*]
  %824 = phi i32 [ %800, %797 ], [ %816, %814 ], [ %816, %820 ] ; [#uses=2 type=i32]
  %825 = load i8, i8* %456, align 4, !tbaa !4     ; [#uses=1 type=i8]
  %826 = and i8 %825, 1                           ; [#uses=1 type=i8]
  %827 = icmp eq i8 %826, 0                       ; [#uses=1 type=i1]
  br i1 %827, label %830, label %828

; <label>:828:                                    ; preds = %822
  %829 = load i8*, i8** %459, align 4, !tbaa !4   ; [#uses=1 type=i8*]
  call void @_ZdlPv(i8* %829) #14
  br label %830

; <label>:830:                                    ; preds = %828, %822, %793
  %831 = phi i8* [ %795, %793 ], [ %823, %822 ], [ %823, %828 ] ; [#uses=2 type=i8*]
  %832 = phi i32 [ %796, %793 ], [ %824, %822 ], [ %824, %828 ] ; [#uses=2 type=i32]
  %833 = load i8, i8* %458, align 4, !tbaa !4     ; [#uses=1 type=i8]
  %834 = and i8 %833, 1                           ; [#uses=1 type=i8]
  %835 = icmp eq i8 %834, 0                       ; [#uses=1 type=i1]
  br i1 %835, label %1030, label %836

; <label>:836:                                    ; preds = %830
  %837 = load i8*, i8** %460, align 4, !tbaa !4   ; [#uses=1 type=i8*]
  call void @_ZdlPv(i8* %837) #14
  br label %1030

; <label>:838:                                    ; preds = %739
  %839 = landingpad { i8*, i32 }
          cleanup                                 ; [#uses=2 type={ i8*, i32 }]
  %840 = extractvalue { i8*, i32 } %839, 0        ; [#uses=1 type=i8*]
  %841 = extractvalue { i8*, i32 } %839, 1        ; [#uses=1 type=i32]
  call void @llvm.lifetime.end.p0i8(i64 12, i8* nonnull %467) #12
  br label %1030

; <label>:842:                                    ; preds = %737
  %843 = trunc i64 %635 to i8                     ; [#uses=1 type=i8]
  %844 = add i8 %843, 54                          ; [#uses=1 type=i8]
  %845 = invoke dereferenceable(12) %"class.std::__ccr1::basic_string"* @_ZNSt6__ccr112basic_stringIcNS_11char_traitsIcEENS_9allocatorIcEEEaSEc(%"class.std::__ccr1::basic_string"* nonnull %20, i8 zeroext %844) #13
          to label %846 unwind label %660         ; [#uses=0 type=%"class.std::__ccr1::basic_string"*]

; <label>:846:                                    ; preds = %842, %752
  call void @llvm.lifetime.start.p0i8(i64 12, i8* nonnull %468) #12
  %847 = invoke %"class.std::__ccr1::basic_string"* @_ZNSt6__ccr112basic_stringIcNS_11char_traitsIcEENS_9allocatorIcEEEC1ERKS5_(%"class.std::__ccr1::basic_string"* nonnull %32, %"class.std::__ccr1::basic_string"* nonnull dereferenceable(12) %3) #13
          to label %848 unwind label %915         ; [#uses=0 type=%"class.std::__ccr1::basic_string"*]

; <label>:848:                                    ; preds = %846
  %849 = invoke %"class.std::__ccr1::basic_string"* @_ZNSt6__ccr112basic_stringIcNS_11char_traitsIcEENS_9allocatorIcEEEC1ERKS5_(%"class.std::__ccr1::basic_string"* nonnull %33, %"class.std::__ccr1::basic_string"* nonnull dereferenceable(12) %20) #13
          to label %850 unwind label %919         ; [#uses=0 type=%"class.std::__ccr1::basic_string"*]

; <label>:850:                                    ; preds = %848
  invoke void @_ZN9ultra_num4umulENSt6__ccr112basic_stringIcNS0_11char_traitsIcEENS0_9allocatorIcEEEES6_x(%"class.std::__ccr1::basic_string"* nonnull sret %31, %class.ultra_num* %1, %"class.std::__ccr1::basic_string"* nonnull %32, %"class.std::__ccr1::basic_string"* nonnull %33, i64 %4) #13
          to label %851 unwind label %923

; <label>:851:                                    ; preds = %850
  %852 = load i8, i8* %434, align 4, !tbaa !4     ; [#uses=1 type=i8]
  %853 = and i8 %852, 1                           ; [#uses=1 type=i8]
  %854 = icmp eq i8 %853, 0                       ; [#uses=1 type=i1]
  br i1 %854, label %857, label %855

; <label>:855:                                    ; preds = %851
  %856 = load i8*, i8** %466, align 4, !tbaa !4   ; [#uses=1 type=i8*]
  store i8 0, i8* %856, align 1, !tbaa !4
  store i32 0, i32* %469, align 4, !tbaa !4
  br label %858

; <label>:857:                                    ; preds = %851
  store i8 0, i8* %436, align 1, !tbaa !4
  store i8 0, i8* %434, align 4, !tbaa !4
  br label %858

; <label>:858:                                    ; preds = %857, %855
  invoke void @_ZNSt6__ccr112basic_stringIcNS_11char_traitsIcEENS_9allocatorIcEEE7reserveEj(%"class.std::__ccr1::basic_string"* nonnull %21, i32 0) #13
          to label %862 unwind label %859

; <label>:859:                                    ; preds = %858
  %860 = landingpad { i8*, i32 }
          catch i8* null                          ; [#uses=1 type={ i8*, i32 }]
  %861 = extractvalue { i8*, i32 } %860, 0        ; [#uses=1 type=i8*]
  call void @__clang_call_terminate(i8* %861) #15
  unreachable

; <label>:862:                                    ; preds = %858
  call void @llvm.memcpy.p0i8.p0i8.i32(i8* nonnull %434, i8* nonnull %468, i32 12, i32 4, i1 false) #12, !tbaa.struct !12
  call void @llvm.memset.p0i8.i32(i8* nonnull %468, i8 0, i32 12, i32 4, i1 false) #12
  %863 = load i8, i8* %470, align 4, !tbaa !4     ; [#uses=1 type=i8]
  %864 = and i8 %863, 1                           ; [#uses=1 type=i8]
  %865 = icmp eq i8 %864, 0                       ; [#uses=1 type=i1]
  br i1 %865, label %868, label %866

; <label>:866:                                    ; preds = %862
  %867 = load i8*, i8** %472, align 4, !tbaa !4   ; [#uses=1 type=i8*]
  call void @_ZdlPv(i8* %867) #14
  br label %868

; <label>:868:                                    ; preds = %862, %866
  %869 = load i8, i8* %471, align 4, !tbaa !4     ; [#uses=1 type=i8]
  %870 = and i8 %869, 1                           ; [#uses=1 type=i8]
  %871 = icmp eq i8 %870, 0                       ; [#uses=1 type=i1]
  br i1 %871, label %874, label %872

; <label>:872:                                    ; preds = %868
  %873 = load i8*, i8** %474, align 4, !tbaa !4   ; [#uses=1 type=i8*]
  call void @_ZdlPv(i8* %873) #14
  br label %874

; <label>:874:                                    ; preds = %868, %872
  call void @llvm.lifetime.end.p0i8(i64 12, i8* nonnull %468) #12
  call void @llvm.lifetime.start.p0i8(i64 12, i8* nonnull %473) #12
  %875 = invoke %"class.std::__ccr1::basic_string"* @_ZNSt6__ccr112basic_stringIcNS_11char_traitsIcEENS_9allocatorIcEEEC1ERKS5_(%"class.std::__ccr1::basic_string"* nonnull %35, %"class.std::__ccr1::basic_string"* nonnull dereferenceable(12) %8) #13
          to label %876 unwind label %943         ; [#uses=0 type=%"class.std::__ccr1::basic_string"*]

; <label>:876:                                    ; preds = %874
  %877 = invoke %"class.std::__ccr1::basic_string"* @_ZNSt6__ccr112basic_stringIcNS_11char_traitsIcEENS_9allocatorIcEEEC1ERKS5_(%"class.std::__ccr1::basic_string"* nonnull %36, %"class.std::__ccr1::basic_string"* nonnull dereferenceable(12) %21) #13
          to label %878 unwind label %947         ; [#uses=0 type=%"class.std::__ccr1::basic_string"*]

; <label>:878:                                    ; preds = %876
  invoke void @_ZN9ultra_num4usubENSt6__ccr112basic_stringIcNS0_11char_traitsIcEENS0_9allocatorIcEEEES6_x(%"class.std::__ccr1::basic_string"* nonnull sret %34, %class.ultra_num* %1, %"class.std::__ccr1::basic_string"* nonnull %35, %"class.std::__ccr1::basic_string"* nonnull %36, i64 %4) #13
          to label %879 unwind label %951

; <label>:879:                                    ; preds = %878
  %880 = load i8, i8* %104, align 4, !tbaa !4     ; [#uses=1 type=i8]
  %881 = and i8 %880, 1                           ; [#uses=1 type=i8]
  %882 = icmp eq i8 %881, 0                       ; [#uses=1 type=i1]
  br i1 %882, label %885, label %883

; <label>:883:                                    ; preds = %879
  %884 = load i8*, i8** %424, align 4, !tbaa !4   ; [#uses=1 type=i8*]
  store i8 0, i8* %884, align 1, !tbaa !4
  store i32 0, i32* %425, align 4, !tbaa !4
  br label %886

; <label>:885:                                    ; preds = %879
  store i8 0, i8* %106, align 1, !tbaa !4
  store i8 0, i8* %104, align 4, !tbaa !4
  br label %886

; <label>:886:                                    ; preds = %885, %883
  invoke void @_ZNSt6__ccr112basic_stringIcNS_11char_traitsIcEENS_9allocatorIcEEE7reserveEj(%"class.std::__ccr1::basic_string"* nonnull %8, i32 0) #13
          to label %890 unwind label %887

; <label>:887:                                    ; preds = %886
  %888 = landingpad { i8*, i32 }
          catch i8* null                          ; [#uses=1 type={ i8*, i32 }]
  %889 = extractvalue { i8*, i32 } %888, 0        ; [#uses=1 type=i8*]
  call void @__clang_call_terminate(i8* %889) #15
  unreachable

; <label>:890:                                    ; preds = %886
  call void @llvm.memcpy.p0i8.p0i8.i32(i8* nonnull %104, i8* nonnull %473, i32 12, i32 4, i1 false) #12, !tbaa.struct !12
  call void @llvm.memset.p0i8.i32(i8* nonnull %473, i8 0, i32 12, i32 4, i1 false) #12
  %891 = load i8, i8* %475, align 4, !tbaa !4     ; [#uses=1 type=i8]
  %892 = and i8 %891, 1                           ; [#uses=1 type=i8]
  %893 = icmp eq i8 %892, 0                       ; [#uses=1 type=i1]
  br i1 %893, label %896, label %894

; <label>:894:                                    ; preds = %890
  %895 = load i8*, i8** %477, align 4, !tbaa !4   ; [#uses=1 type=i8*]
  call void @_ZdlPv(i8* %895) #14
  br label %896

; <label>:896:                                    ; preds = %890, %894
  %897 = load i8, i8* %476, align 4, !tbaa !4     ; [#uses=1 type=i8]
  %898 = and i8 %897, 1                           ; [#uses=1 type=i8]
  %899 = icmp eq i8 %898, 0                       ; [#uses=1 type=i1]
  br i1 %899, label %902, label %900

; <label>:900:                                    ; preds = %896
  %901 = load i8*, i8** %478, align 4, !tbaa !4   ; [#uses=1 type=i8*]
  call void @_ZdlPv(i8* %901) #14
  br label %902

; <label>:902:                                    ; preds = %896, %900
  call void @llvm.lifetime.end.p0i8(i64 12, i8* nonnull %473) #12
  %903 = load i8, i8* %104, align 4, !tbaa !4     ; [#uses=1 type=i8]
  %904 = and i8 %903, 1                           ; [#uses=1 type=i8]
  %905 = icmp eq i8 %904, 0                       ; [#uses=1 type=i1]
  %906 = load i8*, i8** %424, align 4             ; [#uses=1 type=i8*]
  %907 = select i1 %905, i8* %106, i8* %906       ; [#uses=1 type=i8*]
  br label %908

; <label>:908:                                    ; preds = %908, %902
  %909 = phi i64 [ 0, %902 ], [ %914, %908 ]      ; [#uses=3 type=i64]
  %910 = trunc i64 %909 to i32                    ; [#uses=1 type=i32]
  %911 = getelementptr inbounds i8, i8* %907, i32 %910 ; [#uses=1 type=i8*]
  %912 = load i8, i8* %911, align 1, !tbaa !4     ; [#uses=1 type=i8]
  %913 = icmp eq i8 %912, 48                      ; [#uses=1 type=i1]
  %914 = add nuw nsw i64 %909, 1                  ; [#uses=1 type=i64]
  br i1 %913, label %908, label %971

; <label>:915:                                    ; preds = %846
  %916 = landingpad { i8*, i32 }
          cleanup                                 ; [#uses=2 type={ i8*, i32 }]
  %917 = extractvalue { i8*, i32 } %916, 0        ; [#uses=1 type=i8*]
  %918 = extractvalue { i8*, i32 } %916, 1        ; [#uses=1 type=i32]
  br label %940

; <label>:919:                                    ; preds = %848
  %920 = landingpad { i8*, i32 }
          cleanup                                 ; [#uses=2 type={ i8*, i32 }]
  %921 = extractvalue { i8*, i32 } %920, 0        ; [#uses=1 type=i8*]
  %922 = extractvalue { i8*, i32 } %920, 1        ; [#uses=1 type=i32]
  br label %932

; <label>:923:                                    ; preds = %850
  %924 = landingpad { i8*, i32 }
          cleanup                                 ; [#uses=2 type={ i8*, i32 }]
  %925 = extractvalue { i8*, i32 } %924, 0        ; [#uses=2 type=i8*]
  %926 = extractvalue { i8*, i32 } %924, 1        ; [#uses=2 type=i32]
  %927 = load i8, i8* %470, align 4, !tbaa !4     ; [#uses=1 type=i8]
  %928 = and i8 %927, 1                           ; [#uses=1 type=i8]
  %929 = icmp eq i8 %928, 0                       ; [#uses=1 type=i1]
  br i1 %929, label %932, label %930

; <label>:930:                                    ; preds = %923
  %931 = load i8*, i8** %472, align 4, !tbaa !4   ; [#uses=1 type=i8*]
  call void @_ZdlPv(i8* %931) #14
  br label %932

; <label>:932:                                    ; preds = %930, %923, %919
  %933 = phi i8* [ %921, %919 ], [ %925, %923 ], [ %925, %930 ] ; [#uses=2 type=i8*]
  %934 = phi i32 [ %922, %919 ], [ %926, %923 ], [ %926, %930 ] ; [#uses=2 type=i32]
  %935 = load i8, i8* %471, align 4, !tbaa !4     ; [#uses=1 type=i8]
  %936 = and i8 %935, 1                           ; [#uses=1 type=i8]
  %937 = icmp eq i8 %936, 0                       ; [#uses=1 type=i1]
  br i1 %937, label %940, label %938

; <label>:938:                                    ; preds = %932
  %939 = load i8*, i8** %474, align 4, !tbaa !4   ; [#uses=1 type=i8*]
  call void @_ZdlPv(i8* %939) #14
  br label %940

; <label>:940:                                    ; preds = %938, %932, %915
  %941 = phi i8* [ %917, %915 ], [ %933, %932 ], [ %933, %938 ] ; [#uses=1 type=i8*]
  %942 = phi i32 [ %918, %915 ], [ %934, %932 ], [ %934, %938 ] ; [#uses=1 type=i32]
  call void @llvm.lifetime.end.p0i8(i64 12, i8* nonnull %468) #12
  br label %1030

; <label>:943:                                    ; preds = %874
  %944 = landingpad { i8*, i32 }
          cleanup                                 ; [#uses=2 type={ i8*, i32 }]
  %945 = extractvalue { i8*, i32 } %944, 0        ; [#uses=1 type=i8*]
  %946 = extractvalue { i8*, i32 } %944, 1        ; [#uses=1 type=i32]
  br label %968

; <label>:947:                                    ; preds = %876
  %948 = landingpad { i8*, i32 }
          cleanup                                 ; [#uses=2 type={ i8*, i32 }]
  %949 = extractvalue { i8*, i32 } %948, 0        ; [#uses=1 type=i8*]
  %950 = extractvalue { i8*, i32 } %948, 1        ; [#uses=1 type=i32]
  br label %960

; <label>:951:                                    ; preds = %878
  %952 = landingpad { i8*, i32 }
          cleanup                                 ; [#uses=2 type={ i8*, i32 }]
  %953 = extractvalue { i8*, i32 } %952, 0        ; [#uses=2 type=i8*]
  %954 = extractvalue { i8*, i32 } %952, 1        ; [#uses=2 type=i32]
  %955 = load i8, i8* %475, align 4, !tbaa !4     ; [#uses=1 type=i8]
  %956 = and i8 %955, 1                           ; [#uses=1 type=i8]
  %957 = icmp eq i8 %956, 0                       ; [#uses=1 type=i1]
  br i1 %957, label %960, label %958

; <label>:958:                                    ; preds = %951
  %959 = load i8*, i8** %477, align 4, !tbaa !4   ; [#uses=1 type=i8*]
  call void @_ZdlPv(i8* %959) #14
  br label %960

; <label>:960:                                    ; preds = %958, %951, %947
  %961 = phi i8* [ %949, %947 ], [ %953, %951 ], [ %953, %958 ] ; [#uses=2 type=i8*]
  %962 = phi i32 [ %950, %947 ], [ %954, %951 ], [ %954, %958 ] ; [#uses=2 type=i32]
  %963 = load i8, i8* %476, align 4, !tbaa !4     ; [#uses=1 type=i8]
  %964 = and i8 %963, 1                           ; [#uses=1 type=i8]
  %965 = icmp eq i8 %964, 0                       ; [#uses=1 type=i1]
  br i1 %965, label %968, label %966

; <label>:966:                                    ; preds = %960
  %967 = load i8*, i8** %478, align 4, !tbaa !4   ; [#uses=1 type=i8*]
  call void @_ZdlPv(i8* %967) #14
  br label %968

; <label>:968:                                    ; preds = %966, %960, %943
  %969 = phi i8* [ %945, %943 ], [ %961, %960 ], [ %961, %966 ] ; [#uses=1 type=i8*]
  %970 = phi i32 [ %946, %943 ], [ %962, %960 ], [ %962, %966 ] ; [#uses=1 type=i32]
  call void @llvm.lifetime.end.p0i8(i64 12, i8* nonnull %473) #12
  br label %1030

; <label>:971:                                    ; preds = %908
  %972 = trunc i64 %909 to i32                    ; [#uses=1 type=i32]
  call void @llvm.lifetime.start.p0i8(i64 12, i8* nonnull %479) #12
  %973 = invoke %"class.std::__ccr1::basic_string"* @_ZNSt6__ccr112basic_stringIcNS_11char_traitsIcEENS_9allocatorIcEEEC1ERKS5_jjRKS4_(%"class.std::__ccr1::basic_string"* nonnull %37, %"class.std::__ccr1::basic_string"* nonnull dereferenceable(12) %8, i32 %972, i32 -1, %"class.std::__ccr1::allocator"* nonnull dereferenceable(1) %480) #13
          to label %974 unwind label %998         ; [#uses=0 type=%"class.std::__ccr1::basic_string"*]

; <label>:974:                                    ; preds = %971
  %975 = load i8, i8* %104, align 4, !tbaa !4     ; [#uses=1 type=i8]
  %976 = and i8 %975, 1                           ; [#uses=1 type=i8]
  %977 = icmp eq i8 %976, 0                       ; [#uses=1 type=i1]
  br i1 %977, label %980, label %978

; <label>:978:                                    ; preds = %974
  %979 = load i8*, i8** %424, align 4, !tbaa !4   ; [#uses=1 type=i8*]
  store i8 0, i8* %979, align 1, !tbaa !4
  store i32 0, i32* %425, align 4, !tbaa !4
  br label %981

; <label>:980:                                    ; preds = %974
  store i8 0, i8* %106, align 1, !tbaa !4
  store i8 0, i8* %104, align 4, !tbaa !4
  br label %981

; <label>:981:                                    ; preds = %980, %978
  invoke void @_ZNSt6__ccr112basic_stringIcNS_11char_traitsIcEENS_9allocatorIcEEE7reserveEj(%"class.std::__ccr1::basic_string"* nonnull %8, i32 0) #13
          to label %985 unwind label %982

; <label>:982:                                    ; preds = %981
  %983 = landingpad { i8*, i32 }
          catch i8* null                          ; [#uses=1 type={ i8*, i32 }]
  %984 = extractvalue { i8*, i32 } %983, 0        ; [#uses=1 type=i8*]
  call void @__clang_call_terminate(i8* %984) #15
  unreachable

; <label>:985:                                    ; preds = %981
  call void @llvm.memcpy.p0i8.p0i8.i32(i8* nonnull %104, i8* nonnull %479, i32 12, i32 4, i1 false) #12, !tbaa.struct !12
  call void @llvm.lifetime.end.p0i8(i64 12, i8* nonnull %479) #12
  call void @llvm.lifetime.start.p0i8(i64 12, i8* nonnull %481) #12
  invoke void @_ZNSt6__ccr1plIcNS_11char_traitsIcEENS_9allocatorIcEEEENS_12basic_stringIT_T0_T1_EERKS9_SB_(%"class.std::__ccr1::basic_string"* nonnull sret %38, %"class.std::__ccr1::basic_string"* dereferenceable(12) %0, %"class.std::__ccr1::basic_string"* nonnull dereferenceable(12) %20) #13
          to label %986 unwind label %1002

; <label>:986:                                    ; preds = %985
  %987 = load i8, i8* %101, align 4, !tbaa !4     ; [#uses=1 type=i8]
  %988 = and i8 %987, 1                           ; [#uses=1 type=i8]
  %989 = icmp eq i8 %988, 0                       ; [#uses=1 type=i1]
  br i1 %989, label %992, label %990

; <label>:990:                                    ; preds = %986
  %991 = load i8*, i8** %463, align 4, !tbaa !4   ; [#uses=1 type=i8*]
  store i8 0, i8* %991, align 1, !tbaa !4
  store i32 0, i32* %464, align 4, !tbaa !4
  br label %993

; <label>:992:                                    ; preds = %986
  store i8 0, i8* %103, align 1, !tbaa !4
  store i8 0, i8* %101, align 4, !tbaa !4
  br label %993

; <label>:993:                                    ; preds = %992, %990
  invoke void @_ZNSt6__ccr112basic_stringIcNS_11char_traitsIcEENS_9allocatorIcEEE7reserveEj(%"class.std::__ccr1::basic_string"* nonnull %0, i32 0) #13
          to label %997 unwind label %994

; <label>:994:                                    ; preds = %993
  %995 = landingpad { i8*, i32 }
          catch i8* null                          ; [#uses=1 type={ i8*, i32 }]
  %996 = extractvalue { i8*, i32 } %995, 0        ; [#uses=1 type=i8*]
  call void @__clang_call_terminate(i8* %996) #15
  unreachable

; <label>:997:                                    ; preds = %993
  call void @llvm.memcpy.p0i8.p0i8.i32(i8* nonnull %101, i8* nonnull %481, i32 12, i32 4, i1 false) #12, !tbaa.struct !12
  call void @llvm.lifetime.end.p0i8(i64 12, i8* nonnull %481) #12
  br label %1009

; <label>:998:                                    ; preds = %971
  %999 = landingpad { i8*, i32 }
          cleanup                                 ; [#uses=2 type={ i8*, i32 }]
  %1000 = extractvalue { i8*, i32 } %999, 0       ; [#uses=1 type=i8*]
  %1001 = extractvalue { i8*, i32 } %999, 1       ; [#uses=1 type=i32]
  call void @llvm.lifetime.end.p0i8(i64 12, i8* nonnull %479) #12
  br label %1030

; <label>:1002:                                   ; preds = %985
  %1003 = landingpad { i8*, i32 }
          cleanup                                 ; [#uses=2 type={ i8*, i32 }]
  %1004 = extractvalue { i8*, i32 } %1003, 0      ; [#uses=1 type=i8*]
  %1005 = extractvalue { i8*, i32 } %1003, 1      ; [#uses=1 type=i32]
  call void @llvm.lifetime.end.p0i8(i64 12, i8* nonnull %481) #12
  br label %1030

; <label>:1006:                                   ; preds = %736
  %1007 = add nuw nsw i64 %635, 1                 ; [#uses=2 type=i64]
  %1008 = icmp slt i64 %1007, %4                  ; [#uses=1 type=i1]
  br i1 %1008, label %634, label %1009

; <label>:1009:                                   ; preds = %1006, %579, %997
  %1010 = icmp eq i64 %505, %440                  ; [#uses=1 type=i1]
  br i1 %1010, label %1011, label %1017

; <label>:1011:                                   ; preds = %1009
  %1012 = invoke dereferenceable(12) %"class.std::__ccr1::basic_string"* @_ZNSt6__ccr112basic_stringIcNS_11char_traitsIcEENS_9allocatorIcEEEaSERKS5_(%"class.std::__ccr1::basic_string"* nonnull %7, %"class.std::__ccr1::basic_string"* nonnull dereferenceable(12) %8) #13
          to label %1017 unwind label %1013       ; [#uses=0 type=%"class.std::__ccr1::basic_string"*]

; <label>:1013:                                   ; preds = %1011
  %1014 = landingpad { i8*, i32 }
          cleanup                                 ; [#uses=2 type={ i8*, i32 }]
  %1015 = extractvalue { i8*, i32 } %1014, 0      ; [#uses=1 type=i8*]
  %1016 = extractvalue { i8*, i32 } %1014, 1      ; [#uses=1 type=i32]
  br label %1030

; <label>:1017:                                   ; preds = %1011, %1009
  %1018 = load i8, i8* %434, align 4, !tbaa !4    ; [#uses=1 type=i8]
  %1019 = and i8 %1018, 1                         ; [#uses=1 type=i8]
  %1020 = icmp eq i8 %1019, 0                     ; [#uses=1 type=i1]
  br i1 %1020, label %1023, label %1021

; <label>:1021:                                   ; preds = %1017
  %1022 = load i8*, i8** %466, align 4, !tbaa !4  ; [#uses=1 type=i8*]
  call void @_ZdlPv(i8* %1022) #14
  br label %1023

; <label>:1023:                                   ; preds = %1017, %1021
  call void @llvm.lifetime.end.p0i8(i64 12, i8* nonnull %434) #12
  %1024 = load i8, i8* %431, align 4, !tbaa !4    ; [#uses=1 type=i8]
  %1025 = and i8 %1024, 1                         ; [#uses=1 type=i8]
  %1026 = icmp eq i8 %1025, 0                     ; [#uses=1 type=i1]
  br i1 %1026, label %1029, label %1027

; <label>:1027:                                   ; preds = %1023
  %1028 = load i8*, i8** %443, align 4, !tbaa !4  ; [#uses=1 type=i8*]
  call void @_ZdlPv(i8* %1028) #14
  br label %1029

; <label>:1029:                                   ; preds = %1023, %1027
  call void @llvm.lifetime.end.p0i8(i64 12, i8* nonnull %431) #12
  br label %1062

; <label>:1030:                                   ; preds = %836, %830, %650, %662, %790, %838, %940, %968, %1002, %998, %1013
  %1031 = phi i8* [ %1015, %1013 ], [ %969, %968 ], [ %941, %940 ], [ %840, %838 ], [ %664, %662 ], [ %791, %790 ], [ %652, %650 ], [ %1004, %1002 ], [ %1000, %998 ], [ %831, %830 ], [ %831, %836 ] ; [#uses=1 type=i8*]
  %1032 = phi i32 [ %1016, %1013 ], [ %970, %968 ], [ %942, %940 ], [ %841, %838 ], [ %665, %662 ], [ %792, %790 ], [ %653, %650 ], [ %1005, %1002 ], [ %1001, %998 ], [ %832, %830 ], [ %832, %836 ] ; [#uses=1 type=i32]
  %1033 = load i8, i8* %434, align 4, !tbaa !4    ; [#uses=1 type=i8]
  %1034 = and i8 %1033, 1                         ; [#uses=1 type=i8]
  %1035 = icmp eq i8 %1034, 0                     ; [#uses=1 type=i1]
  br i1 %1035, label %1038, label %1036

; <label>:1036:                                   ; preds = %1030
  %1037 = load i8*, i8** %466, align 4, !tbaa !4  ; [#uses=1 type=i8*]
  call void @_ZdlPv(i8* %1037) #14
  br label %1038

; <label>:1038:                                   ; preds = %1036, %1030
  call void @llvm.lifetime.end.p0i8(i64 12, i8* nonnull %434) #12
  %1039 = load i8, i8* %431, align 4, !tbaa !4    ; [#uses=1 type=i8]
  %1040 = and i8 %1039, 1                         ; [#uses=1 type=i8]
  %1041 = icmp eq i8 %1040, 0                     ; [#uses=1 type=i1]
  br i1 %1041, label %1044, label %1042

; <label>:1042:                                   ; preds = %1038
  %1043 = load i8*, i8** %443, align 4, !tbaa !4  ; [#uses=1 type=i8*]
  call void @_ZdlPv(i8* %1043) #14
  br label %1044

; <label>:1044:                                   ; preds = %1042, %1038
  call void @llvm.lifetime.end.p0i8(i64 12, i8* nonnull %431) #12
  br label %1232

; <label>:1045:                                   ; preds = %578
  call void @llvm.lifetime.start.p0i8(i64 12, i8* nonnull %438) #12
  invoke void @_ZNSt6__ccr1plIcNS_11char_traitsIcEENS_9allocatorIcEEEENS_12basic_stringIT_T0_T1_EERKS9_PKS6_(%"class.std::__ccr1::basic_string"* nonnull sret %39, %"class.std::__ccr1::basic_string"* dereferenceable(12) %0, i8* getelementptr inbounds ([2 x i8], [2 x i8]* @.str.3, i32 0, i32 0)) #13
          to label %1046 unwind label %1058

; <label>:1046:                                   ; preds = %1045
  %1047 = load i8, i8* %101, align 4, !tbaa !4    ; [#uses=1 type=i8]
  %1048 = and i8 %1047, 1                         ; [#uses=1 type=i8]
  %1049 = icmp eq i8 %1048, 0                     ; [#uses=1 type=i1]
  br i1 %1049, label %1052, label %1050

; <label>:1050:                                   ; preds = %1046
  %1051 = load i8*, i8** %463, align 4, !tbaa !4  ; [#uses=1 type=i8*]
  store i8 0, i8* %1051, align 1, !tbaa !4
  store i32 0, i32* %464, align 4, !tbaa !4
  br label %1053

; <label>:1052:                                   ; preds = %1046
  store i8 0, i8* %103, align 1, !tbaa !4
  store i8 0, i8* %101, align 4, !tbaa !4
  br label %1053

; <label>:1053:                                   ; preds = %1052, %1050
  invoke void @_ZNSt6__ccr112basic_stringIcNS_11char_traitsIcEENS_9allocatorIcEEE7reserveEj(%"class.std::__ccr1::basic_string"* nonnull %0, i32 0) #13
          to label %1057 unwind label %1054

; <label>:1054:                                   ; preds = %1053
  %1055 = landingpad { i8*, i32 }
          catch i8* null                          ; [#uses=1 type={ i8*, i32 }]
  %1056 = extractvalue { i8*, i32 } %1055, 0      ; [#uses=1 type=i8*]
  call void @__clang_call_terminate(i8* %1056) #15
  unreachable

; <label>:1057:                                   ; preds = %1053
  call void @llvm.memcpy.p0i8.p0i8.i32(i8* nonnull %101, i8* nonnull %438, i32 12, i32 4, i1 false) #12, !tbaa.struct !12
  call void @llvm.lifetime.end.p0i8(i64 12, i8* nonnull %438) #12
  br label %1062

; <label>:1058:                                   ; preds = %1045
  %1059 = landingpad { i8*, i32 }
          cleanup                                 ; [#uses=2 type={ i8*, i32 }]
  %1060 = extractvalue { i8*, i32 } %1059, 0      ; [#uses=1 type=i8*]
  %1061 = extractvalue { i8*, i32 } %1059, 1      ; [#uses=1 type=i32]
  call void @llvm.lifetime.end.p0i8(i64 12, i8* nonnull %438) #12
  br label %1232

; <label>:1062:                                   ; preds = %1029, %1057
  %1063 = add nuw nsw i64 %505, 1                 ; [#uses=2 type=i64]
  %1064 = icmp ult i64 %1063, %412                ; [#uses=1 type=i1]
  br i1 %1064, label %504, label %502

; <label>:1065:                                   ; preds = %502
  %1066 = invoke %"class.std::__ccr1::basic_string"* @_ZNSt6__ccr112basic_stringIcNS_11char_traitsIcEENS_9allocatorIcEEEC1ERKS5_(%"class.std::__ccr1::basic_string"* nonnull %41, %"class.std::__ccr1::basic_string"* nonnull dereferenceable(12) %3) #13
          to label %1067 unwind label %1101       ; [#uses=0 type=%"class.std::__ccr1::basic_string"*]

; <label>:1067:                                   ; preds = %1065
  %1068 = invoke i32 @_ZN9ultra_num5ucompENSt6__ccr112basic_stringIcNS0_11char_traitsIcEENS0_9allocatorIcEEEES6_x(%class.ultra_num* %1, %"class.std::__ccr1::basic_string"* nonnull %40, %"class.std::__ccr1::basic_string"* nonnull %41, i64 %4) #13
          to label %1069 unwind label %1105       ; [#uses=1 type=i32]

; <label>:1069:                                   ; preds = %1067
  %1070 = icmp eq i32 %1068, 2                    ; [#uses=1 type=i1]
  %1071 = bitcast %"class.std::__ccr1::basic_string"* %41 to i8* ; [#uses=1 type=i8*]
  %1072 = load i8, i8* %1071, align 4, !tbaa !4   ; [#uses=1 type=i8]
  %1073 = and i8 %1072, 1                         ; [#uses=1 type=i8]
  %1074 = icmp eq i8 %1073, 0                     ; [#uses=1 type=i1]
  br i1 %1074, label %1078, label %1075

; <label>:1075:                                   ; preds = %1069
  %1076 = getelementptr inbounds %"class.std::__ccr1::basic_string", %"class.std::__ccr1::basic_string"* %41, i32 0, i32 0, i32 0, i32 0, i32 0, i32 0, i32 2 ; [#uses=1 type=i8**]
  %1077 = load i8*, i8** %1076, align 4, !tbaa !4 ; [#uses=1 type=i8*]
  call void @_ZdlPv(i8* %1077) #14
  br label %1078

; <label>:1078:                                   ; preds = %1069, %1075
  %1079 = bitcast %"class.std::__ccr1::basic_string"* %40 to i8* ; [#uses=1 type=i8*]
  %1080 = load i8, i8* %1079, align 4, !tbaa !4   ; [#uses=1 type=i8]
  %1081 = and i8 %1080, 1                         ; [#uses=1 type=i8]
  %1082 = icmp eq i8 %1081, 0                     ; [#uses=1 type=i1]
  br i1 %1082, label %1086, label %1083

; <label>:1083:                                   ; preds = %1078
  %1084 = getelementptr inbounds %"class.std::__ccr1::basic_string", %"class.std::__ccr1::basic_string"* %40, i32 0, i32 0, i32 0, i32 0, i32 0, i32 0, i32 2 ; [#uses=1 type=i8**]
  %1085 = load i8*, i8** %1084, align 4, !tbaa !4 ; [#uses=1 type=i8*]
  call void @_ZdlPv(i8* %1085) #14
  br label %1086

; <label>:1086:                                   ; preds = %1078, %1083
  br i1 %1070, label %1087, label %1201

; <label>:1087:                                   ; preds = %1086
  %1088 = load i8, i8* %101, align 4, !tbaa !4    ; [#uses=1 type=i8]
  %1089 = and i8 %1088, 1                         ; [#uses=1 type=i8]
  %1090 = icmp eq i8 %1089, 0                     ; [#uses=1 type=i1]
  %1091 = getelementptr inbounds %"class.std::__ccr1::basic_string", %"class.std::__ccr1::basic_string"* %0, i32 0, i32 0, i32 0, i32 0, i32 0, i32 0, i32 2 ; [#uses=3 type=i8**]
  %1092 = load i8*, i8** %1091, align 4           ; [#uses=1 type=i8*]
  %1093 = select i1 %1090, i8* %103, i8* %1092    ; [#uses=1 type=i8*]
  br label %1094

; <label>:1094:                                   ; preds = %1094, %1087
  %1095 = phi i64 [ 0, %1087 ], [ %1100, %1094 ]  ; [#uses=3 type=i64]
  %1096 = trunc i64 %1095 to i32                  ; [#uses=1 type=i32]
  %1097 = getelementptr inbounds i8, i8* %1093, i32 %1096 ; [#uses=1 type=i8*]
  %1098 = load i8, i8* %1097, align 1, !tbaa !4   ; [#uses=1 type=i8]
  %1099 = icmp eq i8 %1098, 48                    ; [#uses=1 type=i1]
  %1100 = add nuw nsw i64 %1095, 1                ; [#uses=1 type=i64]
  br i1 %1099, label %1094, label %1126

; <label>:1101:                                   ; preds = %1065
  %1102 = landingpad { i8*, i32 }
          cleanup                                 ; [#uses=2 type={ i8*, i32 }]
  %1103 = extractvalue { i8*, i32 } %1102, 0      ; [#uses=1 type=i8*]
  %1104 = extractvalue { i8*, i32 } %1102, 1      ; [#uses=1 type=i32]
  br label %1116

; <label>:1105:                                   ; preds = %1067
  %1106 = landingpad { i8*, i32 }
          cleanup                                 ; [#uses=2 type={ i8*, i32 }]
  %1107 = extractvalue { i8*, i32 } %1106, 0      ; [#uses=2 type=i8*]
  %1108 = extractvalue { i8*, i32 } %1106, 1      ; [#uses=2 type=i32]
  %1109 = bitcast %"class.std::__ccr1::basic_string"* %41 to i8* ; [#uses=1 type=i8*]
  %1110 = load i8, i8* %1109, align 4, !tbaa !4   ; [#uses=1 type=i8]
  %1111 = and i8 %1110, 1                         ; [#uses=1 type=i8]
  %1112 = icmp eq i8 %1111, 0                     ; [#uses=1 type=i1]
  br i1 %1112, label %1116, label %1113

; <label>:1113:                                   ; preds = %1105
  %1114 = getelementptr inbounds %"class.std::__ccr1::basic_string", %"class.std::__ccr1::basic_string"* %41, i32 0, i32 0, i32 0, i32 0, i32 0, i32 0, i32 2 ; [#uses=1 type=i8**]
  %1115 = load i8*, i8** %1114, align 4, !tbaa !4 ; [#uses=1 type=i8*]
  call void @_ZdlPv(i8* %1115) #14
  br label %1116

; <label>:1116:                                   ; preds = %1113, %1105, %1101
  %1117 = phi i8* [ %1103, %1101 ], [ %1107, %1105 ], [ %1107, %1113 ] ; [#uses=2 type=i8*]
  %1118 = phi i32 [ %1104, %1101 ], [ %1108, %1105 ], [ %1108, %1113 ] ; [#uses=2 type=i32]
  %1119 = bitcast %"class.std::__ccr1::basic_string"* %40 to i8* ; [#uses=1 type=i8*]
  %1120 = load i8, i8* %1119, align 4, !tbaa !4   ; [#uses=1 type=i8]
  %1121 = and i8 %1120, 1                         ; [#uses=1 type=i8]
  %1122 = icmp eq i8 %1121, 0                     ; [#uses=1 type=i1]
  br i1 %1122, label %1232, label %1123

; <label>:1123:                                   ; preds = %1116
  %1124 = getelementptr inbounds %"class.std::__ccr1::basic_string", %"class.std::__ccr1::basic_string"* %40, i32 0, i32 0, i32 0, i32 0, i32 0, i32 0, i32 2 ; [#uses=1 type=i8**]
  %1125 = load i8*, i8** %1124, align 4, !tbaa !4 ; [#uses=1 type=i8*]
  call void @_ZdlPv(i8* %1125) #14
  br label %1232

; <label>:1126:                                   ; preds = %1094
  %1127 = trunc i64 %1095 to i32                  ; [#uses=1 type=i32]
  %1128 = bitcast %"class.std::__ccr1::basic_string"* %42 to i8* ; [#uses=4 type=i8*]
  call void @llvm.lifetime.start.p0i8(i64 12, i8* nonnull %1128) #12
  %1129 = bitcast %"class.std::__ccr1::basic_string"* %0 to %"class.std::__ccr1::allocator"* ; [#uses=1 type=%"class.std::__ccr1::allocator"*]
  %1130 = invoke %"class.std::__ccr1::basic_string"* @_ZNSt6__ccr112basic_stringIcNS_11char_traitsIcEENS_9allocatorIcEEEC1ERKS5_jjRKS4_(%"class.std::__ccr1::basic_string"* nonnull %42, %"class.std::__ccr1::basic_string"* nonnull dereferenceable(12) %0, i32 %1127, i32 -1, %"class.std::__ccr1::allocator"* nonnull dereferenceable(1) %1129) #13
          to label %1131 unwind label %1160       ; [#uses=0 type=%"class.std::__ccr1::basic_string"*]

; <label>:1131:                                   ; preds = %1126
  %1132 = load i8, i8* %101, align 4, !tbaa !4    ; [#uses=1 type=i8]
  %1133 = and i8 %1132, 1                         ; [#uses=1 type=i8]
  %1134 = icmp eq i8 %1133, 0                     ; [#uses=1 type=i1]
  br i1 %1134, label %1138, label %1135

; <label>:1135:                                   ; preds = %1131
  %1136 = load i8*, i8** %1091, align 4, !tbaa !4 ; [#uses=1 type=i8*]
  store i8 0, i8* %1136, align 1, !tbaa !4
  %1137 = getelementptr inbounds %"class.std::__ccr1::basic_string", %"class.std::__ccr1::basic_string"* %0, i32 0, i32 0, i32 0, i32 0, i32 0, i32 0, i32 1 ; [#uses=1 type=i32*]
  store i32 0, i32* %1137, align 4, !tbaa !4
  br label %1139

; <label>:1138:                                   ; preds = %1131
  store i8 0, i8* %103, align 1, !tbaa !4
  store i8 0, i8* %101, align 4, !tbaa !4
  br label %1139

; <label>:1139:                                   ; preds = %1138, %1135
  invoke void @_ZNSt6__ccr112basic_stringIcNS_11char_traitsIcEENS_9allocatorIcEEE7reserveEj(%"class.std::__ccr1::basic_string"* nonnull %0, i32 0) #13
          to label %1143 unwind label %1140

; <label>:1140:                                   ; preds = %1139
  %1141 = landingpad { i8*, i32 }
          catch i8* null                          ; [#uses=1 type={ i8*, i32 }]
  %1142 = extractvalue { i8*, i32 } %1141, 0      ; [#uses=1 type=i8*]
  call void @__clang_call_terminate(i8* %1142) #15
  unreachable

; <label>:1143:                                   ; preds = %1139
  call void @llvm.memcpy.p0i8.p0i8.i32(i8* nonnull %101, i8* nonnull %1128, i32 12, i32 4, i1 false) #12, !tbaa.struct !12
  call void @llvm.lifetime.end.p0i8(i64 12, i8* nonnull %1128) #12
  %1144 = bitcast %"class.std::__ccr1::basic_string"* %43 to i8* ; [#uses=6 type=i8*]
  call void @llvm.lifetime.start.p0i8(i64 12, i8* nonnull %1144) #12
  %1145 = getelementptr inbounds %"class.std::__ccr1::basic_string", %"class.std::__ccr1::basic_string"* %43, i32 0, i32 0, i32 0, i32 0, i32 0, i32 0, i32 1 ; [#uses=1 type=i32*]
  %1146 = bitcast i32* %1145 to i64*              ; [#uses=1 type=i64*]
  store i64 0, i64* %1146, align 4
  store i8 4, i8* %1144, align 4, !tbaa !4
  %1147 = bitcast %"class.std::__ccr1::basic_string"* %43 to %"struct.std::__ccr1::basic_string<char, std::__ccr1::char_traits<char>, std::__ccr1::allocator<char> >::__short"* ; [#uses=2 type=%"struct.std::__ccr1::basic_string<char, std::__ccr1::char_traits<char>, std::__ccr1::allocator<char> >::__short"*]
  %1148 = getelementptr inbounds %"struct.std::__ccr1::basic_string<char, std::__ccr1::char_traits<char>, std::__ccr1::allocator<char> >::__short", %"struct.std::__ccr1::basic_string<char, std::__ccr1::char_traits<char>, std::__ccr1::allocator<char> >::__short"* %1147, i32 0, i32 1, i32 0 ; [#uses=1 type=i8*]
  %1149 = bitcast i8* %1148 to i16*               ; [#uses=1 type=i16*]
  store i16 11824, i16* %1149, align 1
  %1150 = getelementptr inbounds %"struct.std::__ccr1::basic_string<char, std::__ccr1::char_traits<char>, std::__ccr1::allocator<char> >::__short", %"struct.std::__ccr1::basic_string<char, std::__ccr1::char_traits<char>, std::__ccr1::allocator<char> >::__short"* %1147, i32 0, i32 1, i32 2 ; [#uses=1 type=i8*]
  store i8 0, i8* %1150, align 1, !tbaa !4
  %1151 = sub nsw i64 %172, %133                  ; [#uses=2 type=i64]
  %1152 = icmp eq i64 %1151, 0                    ; [#uses=1 type=i1]
  br i1 %1152, label %1178, label %1153

; <label>:1153:                                   ; preds = %1143
  br label %1154

; <label>:1154:                                   ; preds = %1153, %1158
  %1155 = phi i64 [ %1156, %1158 ], [ %1151, %1153 ] ; [#uses=1 type=i64]
  %1156 = add nsw i64 %1155, -1                   ; [#uses=2 type=i64]
  %1157 = invoke dereferenceable(12) %"class.std::__ccr1::basic_string"* @_ZNSt6__ccr112basic_stringIcNS_11char_traitsIcEENS_9allocatorIcEEE6appendEPKc(%"class.std::__ccr1::basic_string"* nonnull %43, i8* getelementptr inbounds ([2 x i8], [2 x i8]* @.str.3, i32 0, i32 0)) #13
          to label %1158 unwind label %1164       ; [#uses=0 type=%"class.std::__ccr1::basic_string"*]

; <label>:1158:                                   ; preds = %1154
  %1159 = icmp eq i64 %1156, 0                    ; [#uses=1 type=i1]
  br i1 %1159, label %1178, label %1154

; <label>:1160:                                   ; preds = %1126
  %1161 = landingpad { i8*, i32 }
          cleanup                                 ; [#uses=2 type={ i8*, i32 }]
  %1162 = extractvalue { i8*, i32 } %1161, 0      ; [#uses=1 type=i8*]
  %1163 = extractvalue { i8*, i32 } %1161, 1      ; [#uses=1 type=i32]
  call void @llvm.lifetime.end.p0i8(i64 12, i8* nonnull %1128) #12
  br label %1232

; <label>:1164:                                   ; preds = %1154
  %1165 = landingpad { i8*, i32 }
          cleanup                                 ; [#uses=1 type={ i8*, i32 }]
  br label %1168

; <label>:1166:                                   ; preds = %1190, %1178
  %1167 = landingpad { i8*, i32 }
          cleanup                                 ; [#uses=1 type={ i8*, i32 }]
  br label %1168

; <label>:1168:                                   ; preds = %1166, %1164
  %1169 = phi { i8*, i32 } [ %1165, %1164 ], [ %1167, %1166 ] ; [#uses=2 type={ i8*, i32 }]
  %1170 = extractvalue { i8*, i32 } %1169, 0      ; [#uses=1 type=i8*]
  %1171 = extractvalue { i8*, i32 } %1169, 1      ; [#uses=1 type=i32]
  %1172 = load i8, i8* %1144, align 4, !tbaa !4   ; [#uses=1 type=i8]
  %1173 = and i8 %1172, 1                         ; [#uses=1 type=i8]
  %1174 = icmp eq i8 %1173, 0                     ; [#uses=1 type=i1]
  br i1 %1174, label %1200, label %1175

; <label>:1175:                                   ; preds = %1168
  %1176 = getelementptr inbounds %"class.std::__ccr1::basic_string", %"class.std::__ccr1::basic_string"* %43, i32 0, i32 0, i32 0, i32 0, i32 0, i32 0, i32 2 ; [#uses=1 type=i8**]
  %1177 = load i8*, i8** %1176, align 4, !tbaa !4 ; [#uses=1 type=i8*]
  call void @_ZdlPv(i8* %1177) #14
  br label %1200

; <label>:1178:                                   ; preds = %1158, %1143
  %1179 = load i8, i8* %101, align 4, !tbaa !4    ; [#uses=2 type=i8]
  %1180 = and i8 %1179, 1                         ; [#uses=1 type=i8]
  %1181 = icmp eq i8 %1180, 0                     ; [#uses=2 type=i1]
  %1182 = load i8*, i8** %1091, align 4           ; [#uses=1 type=i8*]
  %1183 = getelementptr inbounds %"class.std::__ccr1::basic_string", %"class.std::__ccr1::basic_string"* %0, i32 0, i32 0, i32 0, i32 0, i32 0, i32 0, i32 1 ; [#uses=1 type=i32*]
  %1184 = load i32, i32* %1183, align 4           ; [#uses=1 type=i32]
  %1185 = zext i8 %1179 to i32                    ; [#uses=1 type=i32]
  %1186 = lshr i32 %1185, 1                       ; [#uses=1 type=i32]
  %1187 = select i1 %1181, i8* %103, i8* %1182    ; [#uses=1 type=i8*]
  %1188 = select i1 %1181, i32 %1186, i32 %1184   ; [#uses=1 type=i32]
  %1189 = invoke dereferenceable(12) %"class.std::__ccr1::basic_string"* @_ZNSt6__ccr112basic_stringIcNS_11char_traitsIcEENS_9allocatorIcEEE6appendEPKcj(%"class.std::__ccr1::basic_string"* nonnull %43, i8* %1187, i32 %1188) #13
          to label %1190 unwind label %1166       ; [#uses=0 type=%"class.std::__ccr1::basic_string"*]

; <label>:1190:                                   ; preds = %1178
  %1191 = invoke dereferenceable(12) %"class.std::__ccr1::basic_string"* @_ZNSt6__ccr112basic_stringIcNS_11char_traitsIcEENS_9allocatorIcEEEaSERKS5_(%"class.std::__ccr1::basic_string"* nonnull %0, %"class.std::__ccr1::basic_string"* nonnull dereferenceable(12) %43) #13
          to label %1192 unwind label %1166       ; [#uses=0 type=%"class.std::__ccr1::basic_string"*]

; <label>:1192:                                   ; preds = %1190
  %1193 = load i8, i8* %1144, align 4, !tbaa !4   ; [#uses=1 type=i8]
  %1194 = and i8 %1193, 1                         ; [#uses=1 type=i8]
  %1195 = icmp eq i8 %1194, 0                     ; [#uses=1 type=i1]
  br i1 %1195, label %1199, label %1196

; <label>:1196:                                   ; preds = %1192
  %1197 = getelementptr inbounds %"class.std::__ccr1::basic_string", %"class.std::__ccr1::basic_string"* %43, i32 0, i32 0, i32 0, i32 0, i32 0, i32 0, i32 2 ; [#uses=1 type=i8**]
  %1198 = load i8*, i8** %1197, align 4, !tbaa !4 ; [#uses=1 type=i8*]
  call void @_ZdlPv(i8* %1198) #14
  br label %1199

; <label>:1199:                                   ; preds = %1192, %1196
  call void @llvm.lifetime.end.p0i8(i64 12, i8* nonnull %1144) #12
  br label %1201

; <label>:1200:                                   ; preds = %1175, %1168
  call void @llvm.lifetime.end.p0i8(i64 12, i8* nonnull %1144) #12
  br label %1232

; <label>:1201:                                   ; preds = %1199, %1086
  %1202 = load i8, i8* %217, align 4, !tbaa !4    ; [#uses=1 type=i8]
  %1203 = and i8 %1202, 1                         ; [#uses=1 type=i8]
  %1204 = icmp eq i8 %1203, 0                     ; [#uses=1 type=i1]
  br i1 %1204, label %1208, label %1205

; <label>:1205:                                   ; preds = %1201
  %1206 = getelementptr inbounds %"class.std::__ccr1::basic_string", %"class.std::__ccr1::basic_string"* %11, i32 0, i32 0, i32 0, i32 0, i32 0, i32 0, i32 2 ; [#uses=1 type=i8**]
  %1207 = load i8*, i8** %1206, align 4, !tbaa !4 ; [#uses=1 type=i8*]
  call void @_ZdlPv(i8* %1207) #14
  br label %1208

; <label>:1208:                                   ; preds = %1201, %1205
  call void @llvm.lifetime.end.p0i8(i64 12, i8* nonnull %217) #12
  %1209 = load i8, i8* %171, align 4, !tbaa !4    ; [#uses=1 type=i8]
  %1210 = and i8 %1209, 1                         ; [#uses=1 type=i8]
  %1211 = icmp eq i8 %1210, 0                     ; [#uses=1 type=i1]
  br i1 %1211, label %1215, label %1212

; <label>:1212:                                   ; preds = %1208
  %1213 = getelementptr inbounds %"class.std::__ccr1::basic_string", %"class.std::__ccr1::basic_string"* %9, i32 0, i32 0, i32 0, i32 0, i32 0, i32 0, i32 2 ; [#uses=1 type=i8**]
  %1214 = load i8*, i8** %1213, align 4, !tbaa !4 ; [#uses=1 type=i8*]
  call void @_ZdlPv(i8* %1214) #14
  br label %1215

; <label>:1215:                                   ; preds = %1208, %1212
  call void @llvm.lifetime.end.p0i8(i64 12, i8* nonnull %171) #12
  %1216 = load i8, i8* %104, align 4, !tbaa !4    ; [#uses=1 type=i8]
  %1217 = and i8 %1216, 1                         ; [#uses=1 type=i8]
  %1218 = icmp eq i8 %1217, 0                     ; [#uses=1 type=i1]
  br i1 %1218, label %1222, label %1219

; <label>:1219:                                   ; preds = %1215
  %1220 = getelementptr inbounds %"class.std::__ccr1::basic_string", %"class.std::__ccr1::basic_string"* %8, i32 0, i32 0, i32 0, i32 0, i32 0, i32 0, i32 2 ; [#uses=1 type=i8**]
  %1221 = load i8*, i8** %1220, align 4, !tbaa !4 ; [#uses=1 type=i8*]
  call void @_ZdlPv(i8* %1221) #14
  br label %1222

; <label>:1222:                                   ; preds = %1215, %1219
  call void @llvm.lifetime.end.p0i8(i64 12, i8* nonnull %104) #12
  %1223 = load i8, i8* %100, align 4, !tbaa !4    ; [#uses=1 type=i8]
  %1224 = and i8 %1223, 1                         ; [#uses=1 type=i8]
  %1225 = icmp eq i8 %1224, 0                     ; [#uses=1 type=i1]
  br i1 %1225, label %1229, label %1226

; <label>:1226:                                   ; preds = %1222
  %1227 = getelementptr inbounds %"class.std::__ccr1::basic_string", %"class.std::__ccr1::basic_string"* %7, i32 0, i32 0, i32 0, i32 0, i32 0, i32 0, i32 2 ; [#uses=1 type=i8**]
  %1228 = load i8*, i8** %1227, align 4, !tbaa !4 ; [#uses=1 type=i8*]
  call void @_ZdlPv(i8* %1228) #14
  br label %1229

; <label>:1229:                                   ; preds = %1222, %1226
  call void @llvm.lifetime.end.p0i8(i64 12, i8* nonnull %100) #12
  %1230 = getelementptr inbounds %"class.std::__ccr1::queue", %"class.std::__ccr1::queue"* %6, i32 0, i32 0, i32 0 ; [#uses=1 type=%"class.std::__ccr1::__deque_base"*]
  %1231 = call %"class.std::__ccr1::__deque_base"* @_ZNSt6__ccr112__deque_baseIcNS_9allocatorIcEEED2Ev(%"class.std::__ccr1::__deque_base"* nonnull %1230) #16 ; [#uses=0 type=%"class.std::__ccr1::__deque_base"*]
  call void @llvm.lifetime.end.p0i8(i64 24, i8* nonnull %99) #12
  ret void

; <label>:1232:                                   ; preds = %1123, %1116, %632, %626, %397, %390, %371, %498, %1058, %1044, %585, %581, %1200, %1160, %308, %292, %282, %265
  %1233 = phi i8* [ %267, %265 ], [ %294, %292 ], [ %310, %308 ], [ %284, %282 ], [ %373, %371 ], [ %500, %498 ], [ %1031, %1044 ], [ %1060, %1058 ], [ %587, %585 ], [ %583, %581 ], [ %1170, %1200 ], [ %1162, %1160 ], [ %391, %390 ], [ %391, %397 ], [ %627, %626 ], [ %627, %632 ], [ %1117, %1116 ], [ %1117, %1123 ] ; [#uses=1 type=i8*]
  %1234 = phi i32 [ %268, %265 ], [ %295, %292 ], [ %311, %308 ], [ %285, %282 ], [ %374, %371 ], [ %501, %498 ], [ %1032, %1044 ], [ %1061, %1058 ], [ %588, %585 ], [ %584, %581 ], [ %1171, %1200 ], [ %1163, %1160 ], [ %392, %390 ], [ %392, %397 ], [ %628, %626 ], [ %628, %632 ], [ %1118, %1116 ], [ %1118, %1123 ] ; [#uses=1 type=i32]
  %1235 = load i8, i8* %217, align 4, !tbaa !4    ; [#uses=1 type=i8]
  %1236 = and i8 %1235, 1                         ; [#uses=1 type=i8]
  %1237 = icmp eq i8 %1236, 0                     ; [#uses=1 type=i1]
  br i1 %1237, label %1241, label %1238

; <label>:1238:                                   ; preds = %1232
  %1239 = getelementptr inbounds %"class.std::__ccr1::basic_string", %"class.std::__ccr1::basic_string"* %11, i32 0, i32 0, i32 0, i32 0, i32 0, i32 0, i32 2 ; [#uses=1 type=i8**]
  %1240 = load i8*, i8** %1239, align 4, !tbaa !4 ; [#uses=1 type=i8*]
  call void @_ZdlPv(i8* %1240) #14
  br label %1241

; <label>:1241:                                   ; preds = %1238, %1232
  call void @llvm.lifetime.end.p0i8(i64 12, i8* nonnull %217) #12
  br label %1242

; <label>:1242:                                   ; preds = %1241, %229, %207
  %1243 = phi i8* [ %160, %207 ], [ %171, %1241 ], [ %171, %229 ] ; [#uses=2 type=i8*]
  %1244 = phi i8* [ %209, %207 ], [ %1233, %1241 ], [ %231, %229 ] ; [#uses=1 type=i8*]
  %1245 = phi i32 [ %210, %207 ], [ %1234, %1241 ], [ %232, %229 ] ; [#uses=1 type=i32]
  %1246 = load i8, i8* %1243, align 4, !tbaa !4   ; [#uses=1 type=i8]
  %1247 = and i8 %1246, 1                         ; [#uses=1 type=i8]
  %1248 = icmp eq i8 %1247, 0                     ; [#uses=1 type=i1]
  br i1 %1248, label %1252, label %1249

; <label>:1249:                                   ; preds = %1242
  %1250 = getelementptr inbounds %"class.std::__ccr1::basic_string", %"class.std::__ccr1::basic_string"* %9, i32 0, i32 0, i32 0, i32 0, i32 0, i32 0, i32 2 ; [#uses=1 type=i8**]
  %1251 = load i8*, i8** %1250, align 4, !tbaa !4 ; [#uses=1 type=i8*]
  call void @_ZdlPv(i8* %1251) #14
  br label %1252

; <label>:1252:                                   ; preds = %1249, %1242
  call void @llvm.lifetime.end.p0i8(i64 12, i8* nonnull %1243) #12
  %1253 = load i8, i8* %104, align 4, !tbaa !4    ; [#uses=1 type=i8]
  %1254 = and i8 %1253, 1                         ; [#uses=1 type=i8]
  %1255 = icmp eq i8 %1254, 0                     ; [#uses=1 type=i1]
  br i1 %1255, label %1259, label %1256

; <label>:1256:                                   ; preds = %1252
  %1257 = getelementptr inbounds %"class.std::__ccr1::basic_string", %"class.std::__ccr1::basic_string"* %8, i32 0, i32 0, i32 0, i32 0, i32 0, i32 0, i32 2 ; [#uses=1 type=i8**]
  %1258 = load i8*, i8** %1257, align 4, !tbaa !4 ; [#uses=1 type=i8*]
  call void @_ZdlPv(i8* %1258) #14
  br label %1259

; <label>:1259:                                   ; preds = %1256, %1252
  call void @llvm.lifetime.end.p0i8(i64 12, i8* nonnull %104) #12
  %1260 = load i8, i8* %101, align 4, !tbaa !4    ; [#uses=1 type=i8]
  %1261 = and i8 %1260, 1                         ; [#uses=1 type=i8]
  %1262 = icmp eq i8 %1261, 0                     ; [#uses=1 type=i1]
  br i1 %1262, label %1266, label %1263

; <label>:1263:                                   ; preds = %1259
  %1264 = getelementptr inbounds %"class.std::__ccr1::basic_string", %"class.std::__ccr1::basic_string"* %0, i32 0, i32 0, i32 0, i32 0, i32 0, i32 0, i32 2 ; [#uses=1 type=i8**]
  %1265 = load i8*, i8** %1264, align 4, !tbaa !4 ; [#uses=1 type=i8*]
  call void @_ZdlPv(i8* %1265) #14
  br label %1266

; <label>:1266:                                   ; preds = %1263, %1259
  %1267 = load i8, i8* %100, align 4, !tbaa !4    ; [#uses=1 type=i8]
  %1268 = and i8 %1267, 1                         ; [#uses=1 type=i8]
  %1269 = icmp eq i8 %1268, 0                     ; [#uses=1 type=i1]
  br i1 %1269, label %1273, label %1270

; <label>:1270:                                   ; preds = %1266
  %1271 = getelementptr inbounds %"class.std::__ccr1::basic_string", %"class.std::__ccr1::basic_string"* %7, i32 0, i32 0, i32 0, i32 0, i32 0, i32 0, i32 2 ; [#uses=1 type=i8**]
  %1272 = load i8*, i8** %1271, align 4, !tbaa !4 ; [#uses=1 type=i8*]
  call void @_ZdlPv(i8* %1272) #14
  br label %1273

; <label>:1273:                                   ; preds = %1270, %1266
  call void @llvm.lifetime.end.p0i8(i64 12, i8* nonnull %100) #12
  %1274 = getelementptr inbounds %"class.std::__ccr1::queue", %"class.std::__ccr1::queue"* %6, i32 0, i32 0, i32 0 ; [#uses=1 type=%"class.std::__ccr1::__deque_base"*]
  %1275 = call %"class.std::__ccr1::__deque_base"* @_ZNSt6__ccr112__deque_baseIcNS_9allocatorIcEEED2Ev(%"class.std::__ccr1::__deque_base"* nonnull %1274) #16 ; [#uses=0 type=%"class.std::__ccr1::__deque_base"*]
  call void @llvm.lifetime.end.p0i8(i64 24, i8* nonnull %99) #12
  %1276 = insertvalue { i8*, i32 } undef, i8* %1244, 0 ; [#uses=1 type={ i8*, i32 }]
  %1277 = insertvalue { i8*, i32 } %1276, i32 %1245, 1 ; [#uses=1 type={ i8*, i32 }]
  resume { i8*, i32 } %1277
}

; [#uses=37]
; Function Attrs: optsize
declare %"class.std::__ccr1::basic_string"* @_ZNSt6__ccr112basic_stringIcNS_11char_traitsIcEENS_9allocatorIcEEEC1ERKS5_(%"class.std::__ccr1::basic_string"* returned, %"class.std::__ccr1::basic_string"* dereferenceable(12)) unnamed_addr #3

; [#uses=164]
; Function Attrs: argmemonly nounwind
declare void @llvm.lifetime.end.p0i8(i64, i8* nocapture) #1

; [#uses=26]
; Function Attrs: noinline noreturn nounwind
define linkonce_odr hidden void @__clang_call_terminate(i8*) local_unnamed_addr #4 comdat {
  %2 = tail call i8* @__cxa_begin_catch(i8* %0) #12 ; [#uses=0 type=i8*]
  tail call void @_ZSt9terminatev() #15
  unreachable
}

; [#uses=2]
declare i8* @__cxa_begin_catch(i8*) local_unnamed_addr

; [#uses=1]
declare void @_ZSt9terminatev() local_unnamed_addr

; [#uses=3]
; Function Attrs: optsize
define linkonce_odr void @_ZNSt6__ccr1plIcNS_11char_traitsIcEENS_9allocatorIcEEEENS_12basic_stringIT_T0_T1_EERKS9_S6_(%"class.std::__ccr1::basic_string"* noalias sret, %"class.std::__ccr1::basic_string"* dereferenceable(12), i8 zeroext) local_unnamed_addr #2 comdat personality i8* bitcast (i32 (...)* @__gxx_personality_v0 to i8*) {
  %4 = bitcast %"class.std::__ccr1::basic_string"* %0 to i8* ; [#uses=3 type=i8*]
  tail call void @llvm.memset.p0i8.i64(i8* %4, i8 0, i64 12, i32 4, i1 false) #12
  %5 = bitcast %"class.std::__ccr1::basic_string"* %1 to i8* ; [#uses=1 type=i8*]
  %6 = load i8, i8* %5, align 4, !tbaa !4         ; [#uses=2 type=i8]
  %7 = and i8 %6, 1                               ; [#uses=1 type=i8]
  %8 = icmp eq i8 %7, 0                           ; [#uses=2 type=i1]
  %9 = getelementptr inbounds %"class.std::__ccr1::basic_string", %"class.std::__ccr1::basic_string"* %1, i32 0, i32 0, i32 0, i32 0, i32 0, i32 0, i32 1 ; [#uses=1 type=i32*]
  %10 = load i32, i32* %9, align 4                ; [#uses=1 type=i32]
  %11 = getelementptr inbounds %"class.std::__ccr1::basic_string", %"class.std::__ccr1::basic_string"* %1, i32 0, i32 0, i32 0, i32 0, i32 0, i32 0, i32 2 ; [#uses=1 type=i8**]
  %12 = load i8*, i8** %11, align 4               ; [#uses=1 type=i8*]
  %13 = zext i8 %6 to i32                         ; [#uses=1 type=i32]
  %14 = lshr i32 %13, 1                           ; [#uses=1 type=i32]
  %15 = bitcast %"class.std::__ccr1::basic_string"* %1 to %"struct.std::__ccr1::basic_string<char, std::__ccr1::char_traits<char>, std::__ccr1::allocator<char> >::__short"* ; [#uses=1 type=%"struct.std::__ccr1::basic_string<char, std::__ccr1::char_traits<char>, std::__ccr1::allocator<char> >::__short"*]
  %16 = getelementptr inbounds %"struct.std::__ccr1::basic_string<char, std::__ccr1::char_traits<char>, std::__ccr1::allocator<char> >::__short", %"struct.std::__ccr1::basic_string<char, std::__ccr1::char_traits<char>, std::__ccr1::allocator<char> >::__short"* %15, i32 0, i32 1, i32 0 ; [#uses=1 type=i8*]
  %17 = select i1 %8, i32 %14, i32 %10            ; [#uses=7 type=i32]
  %18 = select i1 %8, i8* %16, i8* %12            ; [#uses=1 type=i8*]
  %19 = add i32 %17, 1                            ; [#uses=2 type=i32]
  %20 = icmp ugt i32 %19, -17                     ; [#uses=1 type=i1]
  br i1 %20, label %21, label %24

; <label>:21:                                     ; preds = %3
  %22 = bitcast %"class.std::__ccr1::basic_string"* %0 to %"class.std::__ccr1::__basic_string_common"* ; [#uses=1 type=%"class.std::__ccr1::__basic_string_common"*]
  invoke void @_ZNKSt6__ccr121__basic_string_commonILb1EE20__throw_length_errorEv(%"class.std::__ccr1::__basic_string_common"* %22) #17
          to label %23 unwind label %46

; <label>:23:                                     ; preds = %21
  unreachable

; <label>:24:                                     ; preds = %3
  %25 = icmp ult i32 %19, 11                      ; [#uses=1 type=i1]
  br i1 %25, label %35, label %26

; <label>:26:                                     ; preds = %24
  %27 = add i32 %17, 17                           ; [#uses=1 type=i32]
  %28 = and i32 %27, -16                          ; [#uses=2 type=i32]
  %29 = invoke i8* @_Znwj(i32 %28) #18
          to label %30 unwind label %46           ; [#uses=2 type=i8*]

; <label>:30:                                     ; preds = %26
  %31 = getelementptr inbounds %"class.std::__ccr1::basic_string", %"class.std::__ccr1::basic_string"* %0, i32 0, i32 0, i32 0, i32 0, i32 0, i32 0, i32 2 ; [#uses=1 type=i8**]
  store i8* %29, i8** %31, align 4, !tbaa !4
  %32 = or i32 %28, 1                             ; [#uses=1 type=i32]
  %33 = getelementptr inbounds %"class.std::__ccr1::basic_string", %"class.std::__ccr1::basic_string"* %0, i32 0, i32 0, i32 0, i32 0, i32 0, i32 0, i32 0 ; [#uses=1 type=i32*]
  store i32 %32, i32* %33, align 4, !tbaa !4
  %34 = getelementptr inbounds %"class.std::__ccr1::basic_string", %"class.std::__ccr1::basic_string"* %0, i32 0, i32 0, i32 0, i32 0, i32 0, i32 0, i32 1 ; [#uses=1 type=i32*]
  store i32 %17, i32* %34, align 4, !tbaa !4
  br label %41

; <label>:35:                                     ; preds = %24
  %36 = shl i32 %17, 1                            ; [#uses=1 type=i32]
  %37 = trunc i32 %36 to i8                       ; [#uses=1 type=i8]
  store i8 %37, i8* %4, align 4, !tbaa !4
  %38 = bitcast %"class.std::__ccr1::basic_string"* %0 to %"struct.std::__ccr1::basic_string<char, std::__ccr1::char_traits<char>, std::__ccr1::allocator<char> >::__short"* ; [#uses=1 type=%"struct.std::__ccr1::basic_string<char, std::__ccr1::char_traits<char>, std::__ccr1::allocator<char> >::__short"*]
  %39 = getelementptr inbounds %"struct.std::__ccr1::basic_string<char, std::__ccr1::char_traits<char>, std::__ccr1::allocator<char> >::__short", %"struct.std::__ccr1::basic_string<char, std::__ccr1::char_traits<char>, std::__ccr1::allocator<char> >::__short"* %38, i32 0, i32 1, i32 0 ; [#uses=2 type=i8*]
  %40 = icmp eq i32 %17, 0                        ; [#uses=1 type=i1]
  br i1 %40, label %43, label %41

; <label>:41:                                     ; preds = %30, %35
  %42 = phi i8* [ %29, %30 ], [ %39, %35 ]        ; [#uses=2 type=i8*]
  tail call void @llvm.memcpy.p0i8.p0i8.i32(i8* nonnull %42, i8* %18, i32 %17, i32 1, i1 false) #12
  br label %43

; <label>:43:                                     ; preds = %41, %35
  %44 = phi i8* [ %39, %35 ], [ %42, %41 ]        ; [#uses=1 type=i8*]
  %45 = getelementptr inbounds i8, i8* %44, i32 %17 ; [#uses=1 type=i8*]
  store i8 0, i8* %45, align 1, !tbaa !4
  invoke void @_ZNSt6__ccr112basic_stringIcNS_11char_traitsIcEENS_9allocatorIcEEE9push_backEc(%"class.std::__ccr1::basic_string"* nonnull %0, i8 zeroext %2) #13
          to label %55 unwind label %46

; <label>:46:                                     ; preds = %26, %21, %43
  %47 = landingpad { i8*, i32 }
          cleanup                                 ; [#uses=1 type={ i8*, i32 }]
  %48 = load i8, i8* %4, align 4, !tbaa !4        ; [#uses=1 type=i8]
  %49 = and i8 %48, 1                             ; [#uses=1 type=i8]
  %50 = icmp eq i8 %49, 0                         ; [#uses=1 type=i1]
  br i1 %50, label %54, label %51

; <label>:51:                                     ; preds = %46
  %52 = getelementptr inbounds %"class.std::__ccr1::basic_string", %"class.std::__ccr1::basic_string"* %0, i32 0, i32 0, i32 0, i32 0, i32 0, i32 0, i32 2 ; [#uses=1 type=i8**]
  %53 = load i8*, i8** %52, align 4, !tbaa !4     ; [#uses=1 type=i8*]
  tail call void @_ZdlPv(i8* %53) #14
  br label %54

; <label>:54:                                     ; preds = %46, %51
  resume { i8*, i32 } %47

; <label>:55:                                     ; preds = %43
  ret void
}

; [#uses=5]
; Function Attrs: optsize
declare dereferenceable(12) %"class.std::__ccr1::basic_string"* @_ZNSt6__ccr112basic_stringIcNS_11char_traitsIcEENS_9allocatorIcEEEaSERKS5_(%"class.std::__ccr1::basic_string"*, %"class.std::__ccr1::basic_string"* dereferenceable(12)) local_unnamed_addr #3

; [#uses=5]
; Function Attrs: optsize
define linkonce_odr i32 @_ZN9ultra_num5ucompENSt6__ccr112basic_stringIcNS0_11char_traitsIcEENS0_9allocatorIcEEEES6_x(%class.ultra_num*, %"class.std::__ccr1::basic_string"*, %"class.std::__ccr1::basic_string"*, i64) local_unnamed_addr #2 comdat align 2 personality i8* bitcast (i32 (...)* @__gxx_personality_v0 to i8*) {
  %5 = alloca %"class.std::__ccr1::basic_string", align 4 ; [#uses=6 type=%"class.std::__ccr1::basic_string"*]
  %6 = alloca %"class.std::__ccr1::basic_string", align 4 ; [#uses=6 type=%"class.std::__ccr1::basic_string"*]
  %7 = alloca %"class.std::__ccr1::basic_string", align 4 ; [#uses=3 type=%"class.std::__ccr1::basic_string"*]
  %8 = alloca %"class.std::__ccr1::basic_string", align 4 ; [#uses=6 type=%"class.std::__ccr1::basic_string"*]
  %9 = alloca %"class.std::__ccr1::basic_string", align 4 ; [#uses=6 type=%"class.std::__ccr1::basic_string"*]
  %10 = alloca %"class.std::__ccr1::basic_string", align 4 ; [#uses=2 type=%"class.std::__ccr1::basic_string"*]
  %11 = alloca %"class.std::__ccr1::basic_string", align 4 ; [#uses=2 type=%"class.std::__ccr1::basic_string"*]
  %12 = getelementptr inbounds %class.ultra_num, %class.ultra_num* %0, i32 0, i32 4 ; [#uses=1 type=%"class.std::__ccr1::vector"*]
  %13 = bitcast %"class.std::__ccr1::vector"* %12 to i32* ; [#uses=1 type=i32*]
  %14 = load i32, i32* %13, align 4, !tbaa !7     ; [#uses=1 type=i32]
  %15 = getelementptr inbounds %class.ultra_num, %class.ultra_num* %0, i32 0, i32 4, i32 0, i32 1 ; [#uses=1 type=i64**]
  %16 = bitcast i64** %15 to i32*                 ; [#uses=1 type=i32*]
  store i32 %14, i32* %16, align 4, !tbaa !11
  %17 = getelementptr inbounds %class.ultra_num, %class.ultra_num* %0, i32 0, i32 5 ; [#uses=1 type=%"class.std::__ccr1::vector"*]
  %18 = bitcast %"class.std::__ccr1::vector"* %17 to i32* ; [#uses=1 type=i32*]
  %19 = load i32, i32* %18, align 4, !tbaa !7     ; [#uses=1 type=i32]
  %20 = getelementptr inbounds %class.ultra_num, %class.ultra_num* %0, i32 0, i32 5, i32 0, i32 1 ; [#uses=1 type=i64**]
  %21 = bitcast i64** %20 to i32*                 ; [#uses=1 type=i32*]
  store i32 %19, i32* %21, align 4, !tbaa !11
  %22 = bitcast %class.ultra_num* %0 to i32*      ; [#uses=3 type=i32*]
  %23 = load i32, i32* %22, align 4, !tbaa !7     ; [#uses=1 type=i32]
  %24 = getelementptr inbounds %class.ultra_num, %class.ultra_num* %0, i32 0, i32 0, i32 0, i32 1 ; [#uses=1 type=i64**]
  %25 = bitcast i64** %24 to i32*                 ; [#uses=3 type=i32*]
  store i32 %23, i32* %25, align 4, !tbaa !11
  %26 = getelementptr inbounds %class.ultra_num, %class.ultra_num* %0, i32 0, i32 1 ; [#uses=1 type=%"class.std::__ccr1::vector"*]
  %27 = bitcast %"class.std::__ccr1::vector"* %26 to i32* ; [#uses=3 type=i32*]
  %28 = load i32, i32* %27, align 4, !tbaa !7     ; [#uses=1 type=i32]
  %29 = getelementptr inbounds %class.ultra_num, %class.ultra_num* %0, i32 0, i32 1, i32 0, i32 1 ; [#uses=1 type=i64**]
  %30 = bitcast i64** %29 to i32*                 ; [#uses=3 type=i32*]
  store i32 %28, i32* %30, align 4, !tbaa !11
  %31 = getelementptr inbounds %class.ultra_num, %class.ultra_num* %0, i32 0, i32 2 ; [#uses=1 type=%"class.std::__ccr1::vector"*]
  %32 = bitcast %"class.std::__ccr1::vector"* %31 to i32* ; [#uses=3 type=i32*]
  %33 = load i32, i32* %32, align 4, !tbaa !7     ; [#uses=1 type=i32]
  %34 = getelementptr inbounds %class.ultra_num, %class.ultra_num* %0, i32 0, i32 2, i32 0, i32 1 ; [#uses=1 type=i64**]
  %35 = bitcast i64** %34 to i32*                 ; [#uses=3 type=i32*]
  store i32 %33, i32* %35, align 4, !tbaa !11
  %36 = getelementptr inbounds %class.ultra_num, %class.ultra_num* %0, i32 0, i32 3 ; [#uses=1 type=%"class.std::__ccr1::vector"*]
  %37 = bitcast %"class.std::__ccr1::vector"* %36 to i32* ; [#uses=3 type=i32*]
  %38 = load i32, i32* %37, align 4, !tbaa !7     ; [#uses=1 type=i32]
  %39 = getelementptr inbounds %class.ultra_num, %class.ultra_num* %0, i32 0, i32 3, i32 0, i32 1 ; [#uses=1 type=i64**]
  %40 = bitcast i64** %39 to i32*                 ; [#uses=3 type=i32*]
  store i32 %38, i32* %40, align 4, !tbaa !11
  %41 = call %"class.std::__ccr1::basic_string"* @_ZNSt6__ccr112basic_stringIcNS_11char_traitsIcEENS_9allocatorIcEEEC1ERKS5_(%"class.std::__ccr1::basic_string"* nonnull %5, %"class.std::__ccr1::basic_string"* dereferenceable(12) %1) #13 ; [#uses=0 type=%"class.std::__ccr1::basic_string"*]
  invoke void @_ZN9ultra_num3stvENSt6__ccr112basic_stringIcNS0_11char_traitsIcEENS0_9allocatorIcEEEEx(%class.ultra_num* %0, %"class.std::__ccr1::basic_string"* nonnull %5, i64 0) #13
          to label %42 unwind label %117

; <label>:42:                                     ; preds = %4
  %43 = bitcast %"class.std::__ccr1::basic_string"* %5 to i8* ; [#uses=1 type=i8*]
  %44 = load i8, i8* %43, align 4, !tbaa !4       ; [#uses=1 type=i8]
  %45 = and i8 %44, 1                             ; [#uses=1 type=i8]
  %46 = icmp eq i8 %45, 0                         ; [#uses=1 type=i1]
  br i1 %46, label %50, label %47

; <label>:47:                                     ; preds = %42
  %48 = getelementptr inbounds %"class.std::__ccr1::basic_string", %"class.std::__ccr1::basic_string"* %5, i32 0, i32 0, i32 0, i32 0, i32 0, i32 0, i32 2 ; [#uses=1 type=i8**]
  %49 = load i8*, i8** %48, align 4, !tbaa !4     ; [#uses=1 type=i8*]
  call void @_ZdlPv(i8* %49) #14
  br label %50

; <label>:50:                                     ; preds = %42, %47
  %51 = call %"class.std::__ccr1::basic_string"* @_ZNSt6__ccr112basic_stringIcNS_11char_traitsIcEENS_9allocatorIcEEEC1ERKS5_(%"class.std::__ccr1::basic_string"* nonnull %6, %"class.std::__ccr1::basic_string"* dereferenceable(12) %2) #13 ; [#uses=0 type=%"class.std::__ccr1::basic_string"*]
  invoke void @_ZN9ultra_num3stvENSt6__ccr112basic_stringIcNS0_11char_traitsIcEENS0_9allocatorIcEEEEx(%class.ultra_num* nonnull %0, %"class.std::__ccr1::basic_string"* nonnull %6, i64 1) #13
          to label %52 unwind label %128

; <label>:52:                                     ; preds = %50
  %53 = bitcast %"class.std::__ccr1::basic_string"* %6 to i8* ; [#uses=1 type=i8*]
  %54 = load i8, i8* %53, align 4, !tbaa !4       ; [#uses=1 type=i8]
  %55 = and i8 %54, 1                             ; [#uses=1 type=i8]
  %56 = icmp eq i8 %55, 0                         ; [#uses=1 type=i1]
  br i1 %56, label %60, label %57

; <label>:57:                                     ; preds = %52
  %58 = getelementptr inbounds %"class.std::__ccr1::basic_string", %"class.std::__ccr1::basic_string"* %6, i32 0, i32 0, i32 0, i32 0, i32 0, i32 0, i32 2 ; [#uses=1 type=i8**]
  %59 = load i8*, i8** %58, align 4, !tbaa !4     ; [#uses=1 type=i8*]
  call void @_ZdlPv(i8* %59) #14
  br label %60

; <label>:60:                                     ; preds = %52, %57
  %61 = call %"class.std::__ccr1::basic_string"* @_ZNSt6__ccr112basic_stringIcNS_11char_traitsIcEENS_9allocatorIcEEEC1ERKS5_(%"class.std::__ccr1::basic_string"* nonnull %8, %"class.std::__ccr1::basic_string"* nonnull dereferenceable(12) %1) #13 ; [#uses=0 type=%"class.std::__ccr1::basic_string"*]
  %62 = invoke %"class.std::__ccr1::basic_string"* @_ZNSt6__ccr112basic_stringIcNS_11char_traitsIcEENS_9allocatorIcEEEC1ERKS5_(%"class.std::__ccr1::basic_string"* nonnull %9, %"class.std::__ccr1::basic_string"* nonnull dereferenceable(12) %2) #13
          to label %63 unwind label %139          ; [#uses=0 type=%"class.std::__ccr1::basic_string"*]

; <label>:63:                                     ; preds = %60
  invoke void @_ZN9ultra_num4uaddENSt6__ccr112basic_stringIcNS0_11char_traitsIcEENS0_9allocatorIcEEEES6_x(%"class.std::__ccr1::basic_string"* nonnull sret %7, %class.ultra_num* nonnull %0, %"class.std::__ccr1::basic_string"* nonnull %8, %"class.std::__ccr1::basic_string"* nonnull %9, i64 %3) #13
          to label %64 unwind label %143

; <label>:64:                                     ; preds = %63
  %65 = bitcast %"class.std::__ccr1::basic_string"* %7 to i8* ; [#uses=1 type=i8*]
  %66 = load i8, i8* %65, align 4, !tbaa !4       ; [#uses=1 type=i8]
  %67 = and i8 %66, 1                             ; [#uses=1 type=i8]
  %68 = icmp eq i8 %67, 0                         ; [#uses=1 type=i1]
  br i1 %68, label %72, label %69

; <label>:69:                                     ; preds = %64
  %70 = getelementptr inbounds %"class.std::__ccr1::basic_string", %"class.std::__ccr1::basic_string"* %7, i32 0, i32 0, i32 0, i32 0, i32 0, i32 0, i32 2 ; [#uses=1 type=i8**]
  %71 = load i8*, i8** %70, align 4, !tbaa !4     ; [#uses=1 type=i8*]
  call void @_ZdlPv(i8* %71) #14
  br label %72

; <label>:72:                                     ; preds = %64, %69
  %73 = bitcast %"class.std::__ccr1::basic_string"* %9 to i8* ; [#uses=1 type=i8*]
  %74 = load i8, i8* %73, align 4, !tbaa !4       ; [#uses=1 type=i8]
  %75 = and i8 %74, 1                             ; [#uses=1 type=i8]
  %76 = icmp eq i8 %75, 0                         ; [#uses=1 type=i1]
  br i1 %76, label %80, label %77

; <label>:77:                                     ; preds = %72
  %78 = getelementptr inbounds %"class.std::__ccr1::basic_string", %"class.std::__ccr1::basic_string"* %9, i32 0, i32 0, i32 0, i32 0, i32 0, i32 0, i32 2 ; [#uses=1 type=i8**]
  %79 = load i8*, i8** %78, align 4, !tbaa !4     ; [#uses=1 type=i8*]
  call void @_ZdlPv(i8* %79) #14
  br label %80

; <label>:80:                                     ; preds = %72, %77
  %81 = bitcast %"class.std::__ccr1::basic_string"* %8 to i8* ; [#uses=1 type=i8*]
  %82 = load i8, i8* %81, align 4, !tbaa !4       ; [#uses=1 type=i8]
  %83 = and i8 %82, 1                             ; [#uses=1 type=i8]
  %84 = icmp eq i8 %83, 0                         ; [#uses=1 type=i1]
  br i1 %84, label %88, label %85

; <label>:85:                                     ; preds = %80
  %86 = getelementptr inbounds %"class.std::__ccr1::basic_string", %"class.std::__ccr1::basic_string"* %8, i32 0, i32 0, i32 0, i32 0, i32 0, i32 0, i32 2 ; [#uses=1 type=i8**]
  %87 = load i8*, i8** %86, align 4, !tbaa !4     ; [#uses=1 type=i8*]
  call void @_ZdlPv(i8* %87) #14
  br label %88

; <label>:88:                                     ; preds = %80, %85
  %89 = call dereferenceable(12) %"class.std::__ccr1::basic_string"* @_ZNSt6__ccr112basic_stringIcNS_11char_traitsIcEENS_9allocatorIcEEE6assignEPKc(%"class.std::__ccr1::basic_string"* nonnull %1, i8* getelementptr inbounds ([1 x i8], [1 x i8]* @.str.2, i32 0, i32 0)) #13 ; [#uses=0 type=%"class.std::__ccr1::basic_string"*]
  %90 = call dereferenceable(12) %"class.std::__ccr1::basic_string"* @_ZNSt6__ccr112basic_stringIcNS_11char_traitsIcEENS_9allocatorIcEEE6assignEPKc(%"class.std::__ccr1::basic_string"* nonnull %2, i8* getelementptr inbounds ([1 x i8], [1 x i8]* @.str.2, i32 0, i32 0)) #13 ; [#uses=0 type=%"class.std::__ccr1::basic_string"*]
  %91 = load i32, i32* %25, align 4, !tbaa !11    ; [#uses=1 type=i32]
  %92 = load i32, i32* %22, align 4, !tbaa !7     ; [#uses=2 type=i32]
  %93 = icmp eq i32 %91, %92                      ; [#uses=1 type=i1]
  br i1 %93, label %95, label %94

; <label>:94:                                     ; preds = %88
  br label %164

; <label>:95:                                     ; preds = %164, %88
  %96 = bitcast %"class.std::__ccr1::basic_string"* %10 to i8* ; [#uses=3 type=i8*]
  call void @llvm.lifetime.start.p0i8(i64 12, i8* nonnull %96) #12
  call void @_ZNSt6__ccr1plIcNS_11char_traitsIcEENS_9allocatorIcEEEENS_12basic_stringIT_T0_T1_EERKS9_PKS6_(%"class.std::__ccr1::basic_string"* nonnull sret %10, %"class.std::__ccr1::basic_string"* nonnull dereferenceable(12) %1, i8* getelementptr inbounds ([2 x i8], [2 x i8]* @.str.7, i32 0, i32 0)) #13
  %97 = bitcast %"class.std::__ccr1::basic_string"* %1 to i8* ; [#uses=4 type=i8*]
  %98 = load i8, i8* %97, align 4, !tbaa !4       ; [#uses=1 type=i8]
  %99 = and i8 %98, 1                             ; [#uses=1 type=i8]
  %100 = icmp eq i8 %99, 0                        ; [#uses=1 type=i1]
  br i1 %100, label %105, label %101

; <label>:101:                                    ; preds = %95
  %102 = getelementptr inbounds %"class.std::__ccr1::basic_string", %"class.std::__ccr1::basic_string"* %1, i32 0, i32 0, i32 0, i32 0, i32 0, i32 0, i32 2 ; [#uses=1 type=i8**]
  %103 = load i8*, i8** %102, align 4, !tbaa !4   ; [#uses=1 type=i8*]
  store i8 0, i8* %103, align 1, !tbaa !4
  %104 = getelementptr inbounds %"class.std::__ccr1::basic_string", %"class.std::__ccr1::basic_string"* %1, i32 0, i32 0, i32 0, i32 0, i32 0, i32 0, i32 1 ; [#uses=1 type=i32*]
  store i32 0, i32* %104, align 4, !tbaa !4
  br label %108

; <label>:105:                                    ; preds = %95
  %106 = bitcast %"class.std::__ccr1::basic_string"* %1 to %"struct.std::__ccr1::basic_string<char, std::__ccr1::char_traits<char>, std::__ccr1::allocator<char> >::__short"* ; [#uses=1 type=%"struct.std::__ccr1::basic_string<char, std::__ccr1::char_traits<char>, std::__ccr1::allocator<char> >::__short"*]
  %107 = getelementptr inbounds %"struct.std::__ccr1::basic_string<char, std::__ccr1::char_traits<char>, std::__ccr1::allocator<char> >::__short", %"struct.std::__ccr1::basic_string<char, std::__ccr1::char_traits<char>, std::__ccr1::allocator<char> >::__short"* %106, i32 0, i32 1, i32 0 ; [#uses=1 type=i8*]
  store i8 0, i8* %107, align 1, !tbaa !4
  store i8 0, i8* %97, align 4, !tbaa !4
  br label %108

; <label>:108:                                    ; preds = %105, %101
  invoke void @_ZNSt6__ccr112basic_stringIcNS_11char_traitsIcEENS_9allocatorIcEEE7reserveEj(%"class.std::__ccr1::basic_string"* nonnull %1, i32 0) #13
          to label %112 unwind label %109

; <label>:109:                                    ; preds = %108
  %110 = landingpad { i8*, i32 }
          catch i8* null                          ; [#uses=1 type={ i8*, i32 }]
  %111 = extractvalue { i8*, i32 } %110, 0        ; [#uses=1 type=i8*]
  call void @__clang_call_terminate(i8* %111) #15
  unreachable

; <label>:112:                                    ; preds = %108
  call void @llvm.memcpy.p0i8.p0i8.i32(i8* nonnull %97, i8* nonnull %96, i32 12, i32 4, i1 false) #12, !tbaa.struct !12
  %113 = load i32, i32* %30, align 4, !tbaa !11   ; [#uses=1 type=i32]
  %114 = load i32, i32* %27, align 4, !tbaa !7    ; [#uses=2 type=i32]
  call void @llvm.lifetime.end.p0i8(i64 12, i8* nonnull %96) #12
  %115 = icmp eq i32 %113, %114                   ; [#uses=1 type=i1]
  br i1 %115, label %182, label %116

; <label>:116:                                    ; preds = %112
  br label %187

; <label>:117:                                    ; preds = %4
  %118 = landingpad { i8*, i32 }
          cleanup                                 ; [#uses=2 type={ i8*, i32 }]
  %119 = extractvalue { i8*, i32 } %118, 0        ; [#uses=2 type=i8*]
  %120 = extractvalue { i8*, i32 } %118, 1        ; [#uses=2 type=i32]
  %121 = bitcast %"class.std::__ccr1::basic_string"* %5 to i8* ; [#uses=1 type=i8*]
  %122 = load i8, i8* %121, align 4, !tbaa !4     ; [#uses=1 type=i8]
  %123 = and i8 %122, 1                           ; [#uses=1 type=i8]
  %124 = icmp eq i8 %123, 0                       ; [#uses=1 type=i1]
  br i1 %124, label %333, label %125

; <label>:125:                                    ; preds = %117
  %126 = getelementptr inbounds %"class.std::__ccr1::basic_string", %"class.std::__ccr1::basic_string"* %5, i32 0, i32 0, i32 0, i32 0, i32 0, i32 0, i32 2 ; [#uses=1 type=i8**]
  %127 = load i8*, i8** %126, align 4, !tbaa !4   ; [#uses=1 type=i8*]
  call void @_ZdlPv(i8* %127) #14
  br label %333

; <label>:128:                                    ; preds = %50
  %129 = landingpad { i8*, i32 }
          cleanup                                 ; [#uses=2 type={ i8*, i32 }]
  %130 = extractvalue { i8*, i32 } %129, 0        ; [#uses=2 type=i8*]
  %131 = extractvalue { i8*, i32 } %129, 1        ; [#uses=2 type=i32]
  %132 = bitcast %"class.std::__ccr1::basic_string"* %6 to i8* ; [#uses=1 type=i8*]
  %133 = load i8, i8* %132, align 4, !tbaa !4     ; [#uses=1 type=i8]
  %134 = and i8 %133, 1                           ; [#uses=1 type=i8]
  %135 = icmp eq i8 %134, 0                       ; [#uses=1 type=i1]
  br i1 %135, label %333, label %136

; <label>:136:                                    ; preds = %128
  %137 = getelementptr inbounds %"class.std::__ccr1::basic_string", %"class.std::__ccr1::basic_string"* %6, i32 0, i32 0, i32 0, i32 0, i32 0, i32 0, i32 2 ; [#uses=1 type=i8**]
  %138 = load i8*, i8** %137, align 4, !tbaa !4   ; [#uses=1 type=i8*]
  call void @_ZdlPv(i8* %138) #14
  br label %333

; <label>:139:                                    ; preds = %60
  %140 = landingpad { i8*, i32 }
          cleanup                                 ; [#uses=2 type={ i8*, i32 }]
  %141 = extractvalue { i8*, i32 } %140, 0        ; [#uses=1 type=i8*]
  %142 = extractvalue { i8*, i32 } %140, 1        ; [#uses=1 type=i32]
  br label %154

; <label>:143:                                    ; preds = %63
  %144 = landingpad { i8*, i32 }
          cleanup                                 ; [#uses=2 type={ i8*, i32 }]
  %145 = extractvalue { i8*, i32 } %144, 0        ; [#uses=2 type=i8*]
  %146 = extractvalue { i8*, i32 } %144, 1        ; [#uses=2 type=i32]
  %147 = bitcast %"class.std::__ccr1::basic_string"* %9 to i8* ; [#uses=1 type=i8*]
  %148 = load i8, i8* %147, align 4, !tbaa !4     ; [#uses=1 type=i8]
  %149 = and i8 %148, 1                           ; [#uses=1 type=i8]
  %150 = icmp eq i8 %149, 0                       ; [#uses=1 type=i1]
  br i1 %150, label %154, label %151

; <label>:151:                                    ; preds = %143
  %152 = getelementptr inbounds %"class.std::__ccr1::basic_string", %"class.std::__ccr1::basic_string"* %9, i32 0, i32 0, i32 0, i32 0, i32 0, i32 0, i32 2 ; [#uses=1 type=i8**]
  %153 = load i8*, i8** %152, align 4, !tbaa !4   ; [#uses=1 type=i8*]
  call void @_ZdlPv(i8* %153) #14
  br label %154

; <label>:154:                                    ; preds = %151, %143, %139
  %155 = phi i8* [ %141, %139 ], [ %145, %143 ], [ %145, %151 ] ; [#uses=2 type=i8*]
  %156 = phi i32 [ %142, %139 ], [ %146, %143 ], [ %146, %151 ] ; [#uses=2 type=i32]
  %157 = bitcast %"class.std::__ccr1::basic_string"* %8 to i8* ; [#uses=1 type=i8*]
  %158 = load i8, i8* %157, align 4, !tbaa !4     ; [#uses=1 type=i8]
  %159 = and i8 %158, 1                           ; [#uses=1 type=i8]
  %160 = icmp eq i8 %159, 0                       ; [#uses=1 type=i1]
  br i1 %160, label %333, label %161

; <label>:161:                                    ; preds = %154
  %162 = getelementptr inbounds %"class.std::__ccr1::basic_string", %"class.std::__ccr1::basic_string"* %8, i32 0, i32 0, i32 0, i32 0, i32 0, i32 0, i32 2 ; [#uses=1 type=i8**]
  %163 = load i8*, i8** %162, align 4, !tbaa !4   ; [#uses=1 type=i8*]
  call void @_ZdlPv(i8* %163) #14
  br label %333

; <label>:164:                                    ; preds = %94, %164
  %165 = phi i32 [ %177, %164 ], [ %92, %94 ]     ; [#uses=1 type=i32]
  %166 = phi i64 [ %175, %164 ], [ 0, %94 ]       ; [#uses=2 type=i64]
  %167 = inttoptr i32 %165 to i64*                ; [#uses=1 type=i64*]
  %168 = trunc i64 %166 to i32                    ; [#uses=1 type=i32]
  %169 = getelementptr inbounds i64, i64* %167, i32 %168 ; [#uses=2 type=i64*]
  %170 = load i64, i64* %169, align 8, !tbaa !22  ; [#uses=2 type=i64]
  %171 = icmp slt i64 %170, 10                    ; [#uses=1 type=i1]
  %172 = select i1 %171, i64 48, i64 55           ; [#uses=1 type=i64]
  %173 = add i64 %170, %172                       ; [#uses=2 type=i64]
  store i64 %173, i64* %169, align 8, !tbaa !22
  %174 = trunc i64 %173 to i8                     ; [#uses=1 type=i8]
  call void @_ZNSt6__ccr112basic_stringIcNS_11char_traitsIcEENS_9allocatorIcEEE9push_backEc(%"class.std::__ccr1::basic_string"* nonnull %1, i8 zeroext %174) #13
  %175 = add nuw nsw i64 %166, 1                  ; [#uses=2 type=i64]
  %176 = load i32, i32* %25, align 4, !tbaa !11   ; [#uses=1 type=i32]
  %177 = load i32, i32* %22, align 4, !tbaa !7    ; [#uses=2 type=i32]
  %178 = sub i32 %176, %177                       ; [#uses=1 type=i32]
  %179 = ashr exact i32 %178, 3                   ; [#uses=1 type=i32]
  %180 = zext i32 %179 to i64                     ; [#uses=1 type=i64]
  %181 = icmp ult i64 %175, %180                  ; [#uses=1 type=i1]
  br i1 %181, label %164, label %95

; <label>:182:                                    ; preds = %187, %112
  %183 = load i32, i32* %35, align 4, !tbaa !11   ; [#uses=1 type=i32]
  %184 = load i32, i32* %32, align 4, !tbaa !7    ; [#uses=2 type=i32]
  %185 = icmp eq i32 %183, %184                   ; [#uses=1 type=i1]
  br i1 %185, label %205, label %186

; <label>:186:                                    ; preds = %182
  br label %227

; <label>:187:                                    ; preds = %116, %187
  %188 = phi i32 [ %200, %187 ], [ %114, %116 ]   ; [#uses=1 type=i32]
  %189 = phi i64 [ %198, %187 ], [ 0, %116 ]      ; [#uses=2 type=i64]
  %190 = inttoptr i32 %188 to i64*                ; [#uses=1 type=i64*]
  %191 = trunc i64 %189 to i32                    ; [#uses=1 type=i32]
  %192 = getelementptr inbounds i64, i64* %190, i32 %191 ; [#uses=2 type=i64*]
  %193 = load i64, i64* %192, align 8, !tbaa !22  ; [#uses=2 type=i64]
  %194 = icmp slt i64 %193, 10                    ; [#uses=1 type=i1]
  %195 = select i1 %194, i64 48, i64 55           ; [#uses=1 type=i64]
  %196 = add i64 %193, %195                       ; [#uses=2 type=i64]
  store i64 %196, i64* %192, align 8, !tbaa !22
  %197 = trunc i64 %196 to i8                     ; [#uses=1 type=i8]
  call void @_ZNSt6__ccr112basic_stringIcNS_11char_traitsIcEENS_9allocatorIcEEE9push_backEc(%"class.std::__ccr1::basic_string"* nonnull %1, i8 zeroext %197) #13
  %198 = add nuw nsw i64 %189, 1                  ; [#uses=2 type=i64]
  %199 = load i32, i32* %30, align 4, !tbaa !11   ; [#uses=1 type=i32]
  %200 = load i32, i32* %27, align 4, !tbaa !7    ; [#uses=2 type=i32]
  %201 = sub i32 %199, %200                       ; [#uses=1 type=i32]
  %202 = ashr exact i32 %201, 3                   ; [#uses=1 type=i32]
  %203 = zext i32 %202 to i64                     ; [#uses=1 type=i64]
  %204 = icmp ult i64 %198, %203                  ; [#uses=1 type=i1]
  br i1 %204, label %187, label %182

; <label>:205:                                    ; preds = %227, %182
  %206 = bitcast %"class.std::__ccr1::basic_string"* %11 to i8* ; [#uses=3 type=i8*]
  call void @llvm.lifetime.start.p0i8(i64 12, i8* nonnull %206) #12
  call void @_ZNSt6__ccr1plIcNS_11char_traitsIcEENS_9allocatorIcEEEENS_12basic_stringIT_T0_T1_EERKS9_PKS6_(%"class.std::__ccr1::basic_string"* nonnull sret %11, %"class.std::__ccr1::basic_string"* nonnull dereferenceable(12) %2, i8* getelementptr inbounds ([2 x i8], [2 x i8]* @.str.7, i32 0, i32 0)) #13
  %207 = bitcast %"class.std::__ccr1::basic_string"* %2 to i8* ; [#uses=4 type=i8*]
  %208 = load i8, i8* %207, align 4, !tbaa !4     ; [#uses=1 type=i8]
  %209 = and i8 %208, 1                           ; [#uses=1 type=i8]
  %210 = icmp eq i8 %209, 0                       ; [#uses=1 type=i1]
  br i1 %210, label %215, label %211

; <label>:211:                                    ; preds = %205
  %212 = getelementptr inbounds %"class.std::__ccr1::basic_string", %"class.std::__ccr1::basic_string"* %2, i32 0, i32 0, i32 0, i32 0, i32 0, i32 0, i32 2 ; [#uses=1 type=i8**]
  %213 = load i8*, i8** %212, align 4, !tbaa !4   ; [#uses=1 type=i8*]
  store i8 0, i8* %213, align 1, !tbaa !4
  %214 = getelementptr inbounds %"class.std::__ccr1::basic_string", %"class.std::__ccr1::basic_string"* %2, i32 0, i32 0, i32 0, i32 0, i32 0, i32 0, i32 1 ; [#uses=1 type=i32*]
  store i32 0, i32* %214, align 4, !tbaa !4
  br label %218

; <label>:215:                                    ; preds = %205
  %216 = bitcast %"class.std::__ccr1::basic_string"* %2 to %"struct.std::__ccr1::basic_string<char, std::__ccr1::char_traits<char>, std::__ccr1::allocator<char> >::__short"* ; [#uses=1 type=%"struct.std::__ccr1::basic_string<char, std::__ccr1::char_traits<char>, std::__ccr1::allocator<char> >::__short"*]
  %217 = getelementptr inbounds %"struct.std::__ccr1::basic_string<char, std::__ccr1::char_traits<char>, std::__ccr1::allocator<char> >::__short", %"struct.std::__ccr1::basic_string<char, std::__ccr1::char_traits<char>, std::__ccr1::allocator<char> >::__short"* %216, i32 0, i32 1, i32 0 ; [#uses=1 type=i8*]
  store i8 0, i8* %217, align 1, !tbaa !4
  store i8 0, i8* %207, align 4, !tbaa !4
  br label %218

; <label>:218:                                    ; preds = %215, %211
  invoke void @_ZNSt6__ccr112basic_stringIcNS_11char_traitsIcEENS_9allocatorIcEEE7reserveEj(%"class.std::__ccr1::basic_string"* nonnull %2, i32 0) #13
          to label %222 unwind label %219

; <label>:219:                                    ; preds = %218
  %220 = landingpad { i8*, i32 }
          catch i8* null                          ; [#uses=1 type={ i8*, i32 }]
  %221 = extractvalue { i8*, i32 } %220, 0        ; [#uses=1 type=i8*]
  call void @__clang_call_terminate(i8* %221) #15
  unreachable

; <label>:222:                                    ; preds = %218
  call void @llvm.memcpy.p0i8.p0i8.i32(i8* nonnull %207, i8* nonnull %206, i32 12, i32 4, i1 false) #12, !tbaa.struct !12
  %223 = load i32, i32* %40, align 4, !tbaa !11   ; [#uses=1 type=i32]
  %224 = load i32, i32* %37, align 4, !tbaa !7    ; [#uses=2 type=i32]
  call void @llvm.lifetime.end.p0i8(i64 12, i8* nonnull %206) #12
  %225 = icmp eq i32 %223, %224                   ; [#uses=1 type=i1]
  br i1 %225, label %245, label %226

; <label>:226:                                    ; preds = %222
  br label %285

; <label>:227:                                    ; preds = %186, %227
  %228 = phi i32 [ %240, %227 ], [ %184, %186 ]   ; [#uses=1 type=i32]
  %229 = phi i64 [ %238, %227 ], [ 0, %186 ]      ; [#uses=2 type=i64]
  %230 = inttoptr i32 %228 to i64*                ; [#uses=1 type=i64*]
  %231 = trunc i64 %229 to i32                    ; [#uses=1 type=i32]
  %232 = getelementptr inbounds i64, i64* %230, i32 %231 ; [#uses=2 type=i64*]
  %233 = load i64, i64* %232, align 8, !tbaa !22  ; [#uses=2 type=i64]
  %234 = icmp slt i64 %233, 10                    ; [#uses=1 type=i1]
  %235 = select i1 %234, i64 48, i64 55           ; [#uses=1 type=i64]
  %236 = add i64 %233, %235                       ; [#uses=2 type=i64]
  store i64 %236, i64* %232, align 8, !tbaa !22
  %237 = trunc i64 %236 to i8                     ; [#uses=1 type=i8]
  call void @_ZNSt6__ccr112basic_stringIcNS_11char_traitsIcEENS_9allocatorIcEEE9push_backEc(%"class.std::__ccr1::basic_string"* nonnull %2, i8 zeroext %237) #13
  %238 = add nuw nsw i64 %229, 1                  ; [#uses=2 type=i64]
  %239 = load i32, i32* %35, align 4, !tbaa !11   ; [#uses=1 type=i32]
  %240 = load i32, i32* %32, align 4, !tbaa !7    ; [#uses=2 type=i32]
  %241 = sub i32 %239, %240                       ; [#uses=1 type=i32]
  %242 = ashr exact i32 %241, 3                   ; [#uses=1 type=i32]
  %243 = zext i32 %242 to i64                     ; [#uses=1 type=i64]
  %244 = icmp ult i64 %238, %243                  ; [#uses=1 type=i1]
  br i1 %244, label %227, label %205

; <label>:245:                                    ; preds = %285, %222
  %246 = load i8, i8* %207, align 4, !tbaa !4, !noalias !24 ; [#uses=2 type=i8]
  %247 = and i8 %246, 1                           ; [#uses=1 type=i8]
  %248 = icmp eq i8 %247, 0                       ; [#uses=2 type=i1]
  %249 = getelementptr inbounds %"class.std::__ccr1::basic_string", %"class.std::__ccr1::basic_string"* %2, i32 0, i32 0, i32 0, i32 0, i32 0, i32 0, i32 2 ; [#uses=1 type=i8**]
  %250 = load i8*, i8** %249, align 4             ; [#uses=1 type=i8*]
  %251 = getelementptr inbounds %"class.std::__ccr1::basic_string", %"class.std::__ccr1::basic_string"* %2, i32 0, i32 0, i32 0, i32 0, i32 0, i32 0, i32 1 ; [#uses=1 type=i32*]
  %252 = load i32, i32* %251, align 4             ; [#uses=1 type=i32]
  %253 = bitcast %"class.std::__ccr1::basic_string"* %2 to %"struct.std::__ccr1::basic_string<char, std::__ccr1::char_traits<char>, std::__ccr1::allocator<char> >::__short"* ; [#uses=1 type=%"struct.std::__ccr1::basic_string<char, std::__ccr1::char_traits<char>, std::__ccr1::allocator<char> >::__short"*]
  %254 = getelementptr inbounds %"struct.std::__ccr1::basic_string<char, std::__ccr1::char_traits<char>, std::__ccr1::allocator<char> >::__short", %"struct.std::__ccr1::basic_string<char, std::__ccr1::char_traits<char>, std::__ccr1::allocator<char> >::__short"* %253, i32 0, i32 1, i32 0 ; [#uses=1 type=i8*]
  %255 = zext i8 %246 to i32                      ; [#uses=1 type=i32]
  %256 = lshr i32 %255, 1                         ; [#uses=1 type=i32]
  %257 = select i1 %248, i8* %254, i8* %250       ; [#uses=2 type=i8*]
  %258 = select i1 %248, i32 %256, i32 %252       ; [#uses=6 type=i32]
  %259 = load i8, i8* %97, align 4, !tbaa !4      ; [#uses=3 type=i8]
  %260 = and i8 %259, 1                           ; [#uses=1 type=i8]
  %261 = icmp eq i8 %260, 0                       ; [#uses=2 type=i1]
  br i1 %261, label %267, label %262

; <label>:262:                                    ; preds = %245
  %263 = getelementptr inbounds %"class.std::__ccr1::basic_string", %"class.std::__ccr1::basic_string"* %1, i32 0, i32 0, i32 0, i32 0, i32 0, i32 0, i32 1 ; [#uses=1 type=i32*]
  %264 = load i32, i32* %263, align 4, !tbaa !4   ; [#uses=1 type=i32]
  %265 = getelementptr inbounds %"class.std::__ccr1::basic_string", %"class.std::__ccr1::basic_string"* %1, i32 0, i32 0, i32 0, i32 0, i32 0, i32 0, i32 2 ; [#uses=1 type=i8**]
  %266 = load i8*, i8** %265, align 4, !tbaa !4   ; [#uses=1 type=i8*]
  br label %272

; <label>:267:                                    ; preds = %245
  %268 = zext i8 %259 to i32                      ; [#uses=1 type=i32]
  %269 = lshr i32 %268, 1                         ; [#uses=1 type=i32]
  %270 = bitcast %"class.std::__ccr1::basic_string"* %1 to %"struct.std::__ccr1::basic_string<char, std::__ccr1::char_traits<char>, std::__ccr1::allocator<char> >::__short"* ; [#uses=1 type=%"struct.std::__ccr1::basic_string<char, std::__ccr1::char_traits<char>, std::__ccr1::allocator<char> >::__short"*]
  %271 = getelementptr inbounds %"struct.std::__ccr1::basic_string<char, std::__ccr1::char_traits<char>, std::__ccr1::allocator<char> >::__short", %"struct.std::__ccr1::basic_string<char, std::__ccr1::char_traits<char>, std::__ccr1::allocator<char> >::__short"* %270, i32 0, i32 1, i32 0 ; [#uses=1 type=i8*]
  br label %272

; <label>:272:                                    ; preds = %267, %262
  %273 = phi i32 [ %264, %262 ], [ %269, %267 ]   ; [#uses=3 type=i32]
  %274 = phi i8* [ %266, %262 ], [ %271, %267 ]   ; [#uses=1 type=i8*]
  %275 = icmp ult i32 %258, %273                  ; [#uses=1 type=i1]
  %276 = select i1 %275, i32 %258, i32 %273       ; [#uses=2 type=i32]
  %277 = icmp eq i32 %276, 0                      ; [#uses=1 type=i1]
  br i1 %277, label %281, label %278

; <label>:278:                                    ; preds = %272
  %279 = call i32 @memcmp(i8* %274, i8* %257, i32 %276) #16 ; [#uses=2 type=i32]
  %280 = icmp eq i32 %279, 0                      ; [#uses=1 type=i1]
  br i1 %280, label %281, label %283

; <label>:281:                                    ; preds = %278, %272
  %282 = icmp ult i32 %273, %258                  ; [#uses=1 type=i1]
  br i1 %282, label %331, label %303

; <label>:283:                                    ; preds = %278
  %284 = icmp slt i32 %279, 0                     ; [#uses=1 type=i1]
  br i1 %284, label %331, label %303

; <label>:285:                                    ; preds = %226, %285
  %286 = phi i32 [ %298, %285 ], [ %224, %226 ]   ; [#uses=1 type=i32]
  %287 = phi i64 [ %296, %285 ], [ 0, %226 ]      ; [#uses=2 type=i64]
  %288 = inttoptr i32 %286 to i64*                ; [#uses=1 type=i64*]
  %289 = trunc i64 %287 to i32                    ; [#uses=1 type=i32]
  %290 = getelementptr inbounds i64, i64* %288, i32 %289 ; [#uses=2 type=i64*]
  %291 = load i64, i64* %290, align 8, !tbaa !22  ; [#uses=2 type=i64]
  %292 = icmp slt i64 %291, 10                    ; [#uses=1 type=i1]
  %293 = select i1 %292, i64 48, i64 55           ; [#uses=1 type=i64]
  %294 = add i64 %291, %293                       ; [#uses=2 type=i64]
  store i64 %294, i64* %290, align 8, !tbaa !22
  %295 = trunc i64 %294 to i8                     ; [#uses=1 type=i8]
  call void @_ZNSt6__ccr112basic_stringIcNS_11char_traitsIcEENS_9allocatorIcEEE9push_backEc(%"class.std::__ccr1::basic_string"* nonnull %2, i8 zeroext %295) #13
  %296 = add nuw nsw i64 %287, 1                  ; [#uses=2 type=i64]
  %297 = load i32, i32* %40, align 4, !tbaa !11   ; [#uses=1 type=i32]
  %298 = load i32, i32* %37, align 4, !tbaa !7    ; [#uses=2 type=i32]
  %299 = sub i32 %297, %298                       ; [#uses=1 type=i32]
  %300 = ashr exact i32 %299, 3                   ; [#uses=1 type=i32]
  %301 = zext i32 %300 to i64                     ; [#uses=1 type=i64]
  %302 = icmp ult i64 %296, %301                  ; [#uses=1 type=i1]
  br i1 %302, label %285, label %245

; <label>:303:                                    ; preds = %281, %283
  br i1 %261, label %309, label %304

; <label>:304:                                    ; preds = %303
  %305 = getelementptr inbounds %"class.std::__ccr1::basic_string", %"class.std::__ccr1::basic_string"* %1, i32 0, i32 0, i32 0, i32 0, i32 0, i32 0, i32 1 ; [#uses=1 type=i32*]
  %306 = load i32, i32* %305, align 4, !tbaa !4   ; [#uses=1 type=i32]
  %307 = getelementptr inbounds %"class.std::__ccr1::basic_string", %"class.std::__ccr1::basic_string"* %1, i32 0, i32 0, i32 0, i32 0, i32 0, i32 0, i32 2 ; [#uses=1 type=i8**]
  %308 = load i8*, i8** %307, align 4, !tbaa !4   ; [#uses=1 type=i8*]
  br label %314

; <label>:309:                                    ; preds = %303
  %310 = zext i8 %259 to i32                      ; [#uses=1 type=i32]
  %311 = lshr i32 %310, 1                         ; [#uses=1 type=i32]
  %312 = bitcast %"class.std::__ccr1::basic_string"* %1 to %"struct.std::__ccr1::basic_string<char, std::__ccr1::char_traits<char>, std::__ccr1::allocator<char> >::__short"* ; [#uses=1 type=%"struct.std::__ccr1::basic_string<char, std::__ccr1::char_traits<char>, std::__ccr1::allocator<char> >::__short"*]
  %313 = getelementptr inbounds %"struct.std::__ccr1::basic_string<char, std::__ccr1::char_traits<char>, std::__ccr1::allocator<char> >::__short", %"struct.std::__ccr1::basic_string<char, std::__ccr1::char_traits<char>, std::__ccr1::allocator<char> >::__short"* %312, i32 0, i32 1, i32 0 ; [#uses=1 type=i8*]
  br label %314

; <label>:314:                                    ; preds = %309, %304
  %315 = phi i32 [ %306, %304 ], [ %311, %309 ]   ; [#uses=3 type=i32]
  %316 = phi i8* [ %308, %304 ], [ %313, %309 ]   ; [#uses=1 type=i8*]
  %317 = icmp ult i32 %258, %315                  ; [#uses=2 type=i1]
  %318 = select i1 %317, i32 %258, i32 %315       ; [#uses=2 type=i32]
  %319 = icmp eq i32 %318, 0                      ; [#uses=1 type=i1]
  br i1 %319, label %323, label %320

; <label>:320:                                    ; preds = %314
  %321 = call i32 @memcmp(i8* %316, i8* %257, i32 %318) #16 ; [#uses=2 type=i32]
  %322 = icmp eq i32 %321, 0                      ; [#uses=1 type=i1]
  br i1 %322, label %323, label %327

; <label>:323:                                    ; preds = %320, %314
  %324 = icmp ult i32 %315, %258                  ; [#uses=1 type=i1]
  %325 = zext i1 %317 to i32                      ; [#uses=1 type=i32]
  %326 = select i1 %324, i32 -1, i32 %325         ; [#uses=1 type=i32]
  br label %327

; <label>:327:                                    ; preds = %320, %323
  %328 = phi i32 [ %326, %323 ], [ %321, %320 ]   ; [#uses=1 type=i32]
  %329 = icmp sgt i32 %328, 0                     ; [#uses=1 type=i1]
  %330 = select i1 %329, i32 2, i32 0             ; [#uses=1 type=i32]
  br label %331

; <label>:331:                                    ; preds = %281, %327, %283
  %332 = phi i32 [ 1, %283 ], [ %330, %327 ], [ 1, %281 ] ; [#uses=1 type=i32]
  ret i32 %332

; <label>:333:                                    ; preds = %161, %154, %136, %128, %125, %117
  %334 = phi i8* [ %119, %117 ], [ %119, %125 ], [ %130, %128 ], [ %130, %136 ], [ %155, %154 ], [ %155, %161 ] ; [#uses=1 type=i8*]
  %335 = phi i32 [ %120, %117 ], [ %120, %125 ], [ %131, %128 ], [ %131, %136 ], [ %156, %154 ], [ %156, %161 ] ; [#uses=1 type=i32]
  %336 = insertvalue { i8*, i32 } undef, i8* %334, 0 ; [#uses=1 type={ i8*, i32 }]
  %337 = insertvalue { i8*, i32 } %336, i32 %335, 1 ; [#uses=1 type={ i8*, i32 }]
  resume { i8*, i32 } %337
}

; [#uses=2]
; Function Attrs: optsize
declare void @_ZNSt6__ccr19to_stringEx(%"class.std::__ccr1::basic_string"* sret, i64) local_unnamed_addr #3

; [#uses=2]
; Function Attrs: optsize
declare dereferenceable(12) %"class.std::__ccr1::basic_string"* @_ZNSt6__ccr112basic_stringIcNS_11char_traitsIcEENS_9allocatorIcEEEaSEc(%"class.std::__ccr1::basic_string"*, i8 zeroext) local_unnamed_addr #3

; [#uses=3]
; Function Attrs: optsize
define linkonce_odr void @_ZN9ultra_num4umulENSt6__ccr112basic_stringIcNS0_11char_traitsIcEENS0_9allocatorIcEEEES6_x(%"class.std::__ccr1::basic_string"* noalias sret, %class.ultra_num*, %"class.std::__ccr1::basic_string"*, %"class.std::__ccr1::basic_string"*, i64) local_unnamed_addr #2 comdat align 2 personality i8* bitcast (i32 (...)* @__gxx_personality_v0 to i8*) {
  %6 = alloca [7 x i8], align 1                   ; [#uses=1 type=[7 x i8]*]
  %7 = alloca %"class.std::__ccr1::basic_string", align 4 ; [#uses=5 type=%"class.std::__ccr1::basic_string"*]
  %8 = alloca %"class.std::__ccr1::basic_string", align 4 ; [#uses=5 type=%"class.std::__ccr1::basic_string"*]
  %9 = alloca [7 x i8], align 1                   ; [#uses=1 type=[7 x i8]*]
  %10 = alloca %"class.std::__ccr1::basic_string", align 4 ; [#uses=5 type=%"class.std::__ccr1::basic_string"*]
  %11 = alloca %"class.std::__ccr1::basic_string", align 4 ; [#uses=5 type=%"class.std::__ccr1::basic_string"*]
  %12 = alloca %"class.std::__ccr1::basic_string", align 4 ; [#uses=6 type=%"class.std::__ccr1::basic_string"*]
  %13 = alloca %"class.std::__ccr1::basic_string", align 4 ; [#uses=6 type=%"class.std::__ccr1::basic_string"*]
  %14 = alloca %"class.std::__ccr1::vector.33", align 4 ; [#uses=8 type=%"class.std::__ccr1::vector.33"*]
  %15 = alloca i64, align 8                       ; [#uses=4 type=i64*]
  %16 = alloca i64, align 8                       ; [#uses=3 type=i64*]
  %17 = alloca i64, align 8                       ; [#uses=3 type=i64*]
  %18 = alloca %"class.std::__ccr1::basic_string", align 4 ; [#uses=4 type=%"class.std::__ccr1::basic_string"*]
  %19 = alloca %"class.std::__ccr1::basic_string", align 4 ; [#uses=2 type=%"class.std::__ccr1::basic_string"*]
  %20 = alloca %"class.std::__ccr1::basic_string", align 4 ; [#uses=4 type=%"class.std::__ccr1::basic_string"*]
  %21 = alloca %"class.std::__ccr1::basic_string", align 4 ; [#uses=4 type=%"class.std::__ccr1::basic_string"*]
  %22 = alloca [7 x i8], align 1                  ; [#uses=1 type=[7 x i8]*]
  %23 = alloca %"class.std::__ccr1::basic_string", align 4 ; [#uses=4 type=%"class.std::__ccr1::basic_string"*]
  %24 = alloca %"class.std::__ccr1::basic_string", align 4 ; [#uses=5 type=%"class.std::__ccr1::basic_string"*]
  %25 = alloca %"class.std::__ccr1::basic_string", align 4 ; [#uses=5 type=%"class.std::__ccr1::basic_string"*]
  %26 = getelementptr inbounds %class.ultra_num, %class.ultra_num* %1, i32 0, i32 4 ; [#uses=4 type=%"class.std::__ccr1::vector"*]
  %27 = bitcast %"class.std::__ccr1::vector"* %26 to i32* ; [#uses=3 type=i32*]
  %28 = load i32, i32* %27, align 4, !tbaa !7     ; [#uses=1 type=i32]
  %29 = getelementptr inbounds %class.ultra_num, %class.ultra_num* %1, i32 0, i32 4, i32 0, i32 1 ; [#uses=5 type=i64**]
  %30 = bitcast i64** %29 to i32*                 ; [#uses=2 type=i32*]
  store i32 %28, i32* %30, align 4, !tbaa !11
  %31 = getelementptr inbounds %class.ultra_num, %class.ultra_num* %1, i32 0, i32 5 ; [#uses=1 type=%"class.std::__ccr1::vector"*]
  %32 = bitcast %"class.std::__ccr1::vector"* %31 to i32* ; [#uses=1 type=i32*]
  %33 = load i32, i32* %32, align 4, !tbaa !7     ; [#uses=1 type=i32]
  %34 = getelementptr inbounds %class.ultra_num, %class.ultra_num* %1, i32 0, i32 5, i32 0, i32 1 ; [#uses=1 type=i64**]
  %35 = bitcast i64** %34 to i32*                 ; [#uses=1 type=i32*]
  store i32 %33, i32* %35, align 4, !tbaa !11
  %36 = bitcast %class.ultra_num* %1 to i32*      ; [#uses=2 type=i32*]
  %37 = load i32, i32* %36, align 4, !tbaa !7     ; [#uses=1 type=i32]
  %38 = getelementptr inbounds %class.ultra_num, %class.ultra_num* %1, i32 0, i32 0, i32 0, i32 1 ; [#uses=1 type=i64**]
  %39 = bitcast i64** %38 to i32*                 ; [#uses=2 type=i32*]
  store i32 %37, i32* %39, align 4, !tbaa !11
  %40 = getelementptr inbounds %class.ultra_num, %class.ultra_num* %1, i32 0, i32 1 ; [#uses=1 type=%"class.std::__ccr1::vector"*]
  %41 = bitcast %"class.std::__ccr1::vector"* %40 to i32* ; [#uses=1 type=i32*]
  %42 = load i32, i32* %41, align 4, !tbaa !7     ; [#uses=1 type=i32]
  %43 = getelementptr inbounds %class.ultra_num, %class.ultra_num* %1, i32 0, i32 1, i32 0, i32 1 ; [#uses=1 type=i64**]
  %44 = bitcast i64** %43 to i32*                 ; [#uses=1 type=i32*]
  store i32 %42, i32* %44, align 4, !tbaa !11
  %45 = getelementptr inbounds %class.ultra_num, %class.ultra_num* %1, i32 0, i32 2 ; [#uses=2 type=%"class.std::__ccr1::vector"*]
  %46 = bitcast %"class.std::__ccr1::vector"* %45 to i32* ; [#uses=2 type=i32*]
  %47 = load i32, i32* %46, align 4, !tbaa !7     ; [#uses=1 type=i32]
  %48 = getelementptr inbounds %class.ultra_num, %class.ultra_num* %1, i32 0, i32 2, i32 0, i32 1 ; [#uses=1 type=i64**]
  %49 = bitcast i64** %48 to i32*                 ; [#uses=2 type=i32*]
  store i32 %47, i32* %49, align 4, !tbaa !11
  %50 = getelementptr inbounds %class.ultra_num, %class.ultra_num* %1, i32 0, i32 3 ; [#uses=1 type=%"class.std::__ccr1::vector"*]
  %51 = bitcast %"class.std::__ccr1::vector"* %50 to i32* ; [#uses=1 type=i32*]
  %52 = load i32, i32* %51, align 4, !tbaa !7     ; [#uses=1 type=i32]
  %53 = getelementptr inbounds %class.ultra_num, %class.ultra_num* %1, i32 0, i32 3, i32 0, i32 1 ; [#uses=1 type=i64**]
  %54 = bitcast i64** %53 to i32*                 ; [#uses=1 type=i32*]
  store i32 %52, i32* %54, align 4, !tbaa !11
  %55 = bitcast %"class.std::__ccr1::basic_string"* %2 to i8* ; [#uses=5 type=i8*]
  %56 = load i8, i8* %55, align 4, !tbaa !4       ; [#uses=3 type=i8]
  %57 = and i8 %56, 1                             ; [#uses=1 type=i8]
  %58 = icmp eq i8 %57, 0                         ; [#uses=2 type=i1]
  br i1 %58, label %64, label %59

; <label>:59:                                     ; preds = %5
  %60 = getelementptr inbounds %"class.std::__ccr1::basic_string", %"class.std::__ccr1::basic_string"* %2, i32 0, i32 0, i32 0, i32 0, i32 0, i32 0, i32 2 ; [#uses=1 type=i8**]
  %61 = load i8*, i8** %60, align 4, !tbaa !4     ; [#uses=1 type=i8*]
  %62 = getelementptr inbounds %"class.std::__ccr1::basic_string", %"class.std::__ccr1::basic_string"* %2, i32 0, i32 0, i32 0, i32 0, i32 0, i32 0, i32 1 ; [#uses=1 type=i32*]
  %63 = load i32, i32* %62, align 4, !tbaa !4     ; [#uses=1 type=i32]
  br label %69

; <label>:64:                                     ; preds = %5
  %65 = bitcast %"class.std::__ccr1::basic_string"* %2 to %"struct.std::__ccr1::basic_string<char, std::__ccr1::char_traits<char>, std::__ccr1::allocator<char> >::__short"* ; [#uses=1 type=%"struct.std::__ccr1::basic_string<char, std::__ccr1::char_traits<char>, std::__ccr1::allocator<char> >::__short"*]
  %66 = getelementptr inbounds %"struct.std::__ccr1::basic_string<char, std::__ccr1::char_traits<char>, std::__ccr1::allocator<char> >::__short", %"struct.std::__ccr1::basic_string<char, std::__ccr1::char_traits<char>, std::__ccr1::allocator<char> >::__short"* %65, i32 0, i32 1, i32 0 ; [#uses=1 type=i8*]
  %67 = zext i8 %56 to i32                        ; [#uses=1 type=i32]
  %68 = lshr i32 %67, 1                           ; [#uses=1 type=i32]
  br label %69

; <label>:69:                                     ; preds = %59, %64
  %70 = phi i8* [ %61, %59 ], [ %66, %64 ]        ; [#uses=3 type=i8*]
  %71 = phi i32 [ %63, %59 ], [ %68, %64 ]        ; [#uses=3 type=i32]
  %72 = getelementptr inbounds i8, i8* %70, i32 %71 ; [#uses=2 type=i8*]
  %73 = ptrtoint i8* %72 to i32                   ; [#uses=1 type=i32]
  %74 = ptrtoint i8* %70 to i32                   ; [#uses=1 type=i32]
  %75 = icmp slt i32 %71, 1                       ; [#uses=1 type=i1]
  br i1 %75, label %193, label %76

; <label>:76:                                     ; preds = %69
  br label %77

; <label>:77:                                     ; preds = %76, %85
  %78 = phi i32 [ %88, %85 ], [ %71, %76 ]        ; [#uses=1 type=i32]
  %79 = phi i8* [ %86, %85 ], [ %70, %76 ]        ; [#uses=1 type=i8*]
  %80 = tail call i8* @memchr(i8* %79, i32 46, i32 %78) #16 ; [#uses=5 type=i8*]
  %81 = icmp eq i8* %80, null                     ; [#uses=1 type=i1]
  br i1 %81, label %193, label %82

; <label>:82:                                     ; preds = %77
  %83 = load i8, i8* %80, align 1                 ; [#uses=1 type=i8]
  %84 = icmp eq i8 %83, 46                        ; [#uses=1 type=i1]
  br i1 %84, label %90, label %85

; <label>:85:                                     ; preds = %82
  %86 = getelementptr inbounds i8, i8* %80, i32 1 ; [#uses=2 type=i8*]
  %87 = ptrtoint i8* %86 to i32                   ; [#uses=1 type=i32]
  %88 = sub i32 %73, %87                          ; [#uses=2 type=i32]
  %89 = icmp slt i32 %88, 1                       ; [#uses=1 type=i1]
  br i1 %89, label %193, label %77

; <label>:90:                                     ; preds = %82
  %91 = ptrtoint i8* %80 to i32                   ; [#uses=1 type=i32]
  %92 = icmp eq i8* %80, %72                      ; [#uses=1 type=i1]
  %93 = sub i32 %91, %74                          ; [#uses=4 type=i32]
  %94 = icmp eq i32 %93, -1                       ; [#uses=1 type=i1]
  %95 = or i1 %92, %94                            ; [#uses=1 type=i1]
  br i1 %95, label %193, label %96

; <label>:96:                                     ; preds = %90
  %97 = zext i32 %93 to i64                       ; [#uses=1 type=i64]
  br i1 %58, label %101, label %98

; <label>:98:                                     ; preds = %96
  %99 = getelementptr inbounds %"class.std::__ccr1::basic_string", %"class.std::__ccr1::basic_string"* %2, i32 0, i32 0, i32 0, i32 0, i32 0, i32 0, i32 1 ; [#uses=1 type=i32*]
  %100 = load i32, i32* %99, align 4, !tbaa !4    ; [#uses=1 type=i32]
  br label %104

; <label>:101:                                    ; preds = %96
  %102 = zext i8 %56 to i32                       ; [#uses=1 type=i32]
  %103 = lshr i32 %102, 1                         ; [#uses=1 type=i32]
  br label %104

; <label>:104:                                    ; preds = %98, %101
  %105 = phi i32 [ %100, %98 ], [ %103, %101 ]    ; [#uses=1 type=i32]
  %106 = zext i32 %105 to i64                     ; [#uses=1 type=i64]
  %107 = sub nsw i64 %106, %97                    ; [#uses=1 type=i64]
  %108 = add nsw i64 %107, -1                     ; [#uses=2 type=i64]
  %109 = getelementptr inbounds [7 x i8], [7 x i8]* %6, i32 0, i32 0 ; [#uses=6 type=i8*]
  call void @llvm.lifetime.start.p0i8(i64 7, i8* nonnull %109)
  %110 = bitcast %"class.std::__ccr1::basic_string"* %7 to i8* ; [#uses=5 type=i8*]
  call void @llvm.lifetime.start.p0i8(i64 12, i8* nonnull %110) #12
  %111 = bitcast %"class.std::__ccr1::basic_string"* %2 to %"class.std::__ccr1::allocator"* ; [#uses=2 type=%"class.std::__ccr1::allocator"*]
  %112 = call %"class.std::__ccr1::basic_string"* @_ZNSt6__ccr112basic_stringIcNS_11char_traitsIcEENS_9allocatorIcEEEC1ERKS5_jjRKS4_(%"class.std::__ccr1::basic_string"* nonnull %7, %"class.std::__ccr1::basic_string"* dereferenceable(12) %2, i32 0, i32 %93, %"class.std::__ccr1::allocator"* nonnull dereferenceable(1) %111) #13 ; [#uses=0 type=%"class.std::__ccr1::basic_string"*]
  %113 = bitcast %"class.std::__ccr1::basic_string"* %8 to i8* ; [#uses=6 type=i8*]
  call void @llvm.lifetime.start.p0i8(i64 12, i8* nonnull %113) #12
  %114 = add i32 %93, 1                           ; [#uses=1 type=i32]
  %115 = trunc i64 %108 to i32                    ; [#uses=1 type=i32]
  %116 = invoke %"class.std::__ccr1::basic_string"* @_ZNSt6__ccr112basic_stringIcNS_11char_traitsIcEENS_9allocatorIcEEEC1ERKS5_jjRKS4_(%"class.std::__ccr1::basic_string"* nonnull %8, %"class.std::__ccr1::basic_string"* nonnull dereferenceable(12) %2, i32 %114, i32 %115, %"class.std::__ccr1::allocator"* nonnull dereferenceable(1) %111) #13
          to label %117 unwind label %170         ; [#uses=0 type=%"class.std::__ccr1::basic_string"*]

; <label>:117:                                    ; preds = %104
  %118 = load i8, i8* %113, align 4, !tbaa !4, !noalias !27 ; [#uses=2 type=i8]
  %119 = and i8 %118, 1                           ; [#uses=1 type=i8]
  %120 = icmp eq i8 %119, 0                       ; [#uses=2 type=i1]
  %121 = getelementptr inbounds %"class.std::__ccr1::basic_string", %"class.std::__ccr1::basic_string"* %8, i32 0, i32 0, i32 0, i32 0, i32 0, i32 0, i32 2 ; [#uses=3 type=i8**]
  %122 = load i8*, i8** %121, align 4, !noalias !27 ; [#uses=1 type=i8*]
  %123 = getelementptr inbounds %"class.std::__ccr1::basic_string", %"class.std::__ccr1::basic_string"* %8, i32 0, i32 0, i32 0, i32 0, i32 0, i32 0, i32 1 ; [#uses=1 type=i32*]
  %124 = load i32, i32* %123, align 4, !noalias !27 ; [#uses=1 type=i32]
  %125 = bitcast %"class.std::__ccr1::basic_string"* %8 to %"struct.std::__ccr1::basic_string<char, std::__ccr1::char_traits<char>, std::__ccr1::allocator<char> >::__short"* ; [#uses=1 type=%"struct.std::__ccr1::basic_string<char, std::__ccr1::char_traits<char>, std::__ccr1::allocator<char> >::__short"*]
  %126 = getelementptr inbounds %"struct.std::__ccr1::basic_string<char, std::__ccr1::char_traits<char>, std::__ccr1::allocator<char> >::__short", %"struct.std::__ccr1::basic_string<char, std::__ccr1::char_traits<char>, std::__ccr1::allocator<char> >::__short"* %125, i32 0, i32 1, i32 0 ; [#uses=1 type=i8*]
  %127 = zext i8 %118 to i32                      ; [#uses=1 type=i32]
  %128 = lshr i32 %127, 1                         ; [#uses=1 type=i32]
  %129 = select i1 %120, i8* %126, i8* %122       ; [#uses=1 type=i8*]
  %130 = select i1 %120, i32 %128, i32 %124       ; [#uses=1 type=i32]
  %131 = invoke dereferenceable(12) %"class.std::__ccr1::basic_string"* @_ZNSt6__ccr112basic_stringIcNS_11char_traitsIcEENS_9allocatorIcEEE6appendEPKcj(%"class.std::__ccr1::basic_string"* nonnull %7, i8* %129, i32 %130) #13
          to label %132 unwind label %174         ; [#uses=2 type=%"class.std::__ccr1::basic_string"*]

; <label>:132:                                    ; preds = %117
  %133 = bitcast %"class.std::__ccr1::basic_string"* %131 to i8* ; [#uses=3 type=i8*]
  %134 = load i8, i8* %133, align 4               ; [#uses=1 type=i8]
  %135 = getelementptr inbounds i8, i8* %133, i32 1 ; [#uses=1 type=i8*]
  call void @llvm.memcpy.p0i8.p0i8.i32(i8* nonnull %109, i8* nonnull %135, i32 7, i32 1, i1 false)
  %136 = getelementptr inbounds %"class.std::__ccr1::basic_string", %"class.std::__ccr1::basic_string"* %131, i32 0, i32 0, i32 0, i32 0, i32 0, i32 0, i32 2 ; [#uses=1 type=i8**]
  %137 = bitcast i8** %136 to i32*                ; [#uses=1 type=i32*]
  %138 = load i32, i32* %137, align 4             ; [#uses=1 type=i32]
  call void @llvm.memset.p0i8.i32(i8* nonnull %133, i8 0, i32 12, i32 4, i1 false) #12, !noalias !27
  %139 = load i8, i8* %55, align 4, !tbaa !4      ; [#uses=1 type=i8]
  %140 = and i8 %139, 1                           ; [#uses=1 type=i8]
  %141 = icmp eq i8 %140, 0                       ; [#uses=1 type=i1]
  br i1 %141, label %146, label %142

; <label>:142:                                    ; preds = %132
  %143 = getelementptr inbounds %"class.std::__ccr1::basic_string", %"class.std::__ccr1::basic_string"* %2, i32 0, i32 0, i32 0, i32 0, i32 0, i32 0, i32 2 ; [#uses=1 type=i8**]
  %144 = load i8*, i8** %143, align 4, !tbaa !4   ; [#uses=1 type=i8*]
  store i8 0, i8* %144, align 1, !tbaa !4
  %145 = getelementptr inbounds %"class.std::__ccr1::basic_string", %"class.std::__ccr1::basic_string"* %2, i32 0, i32 0, i32 0, i32 0, i32 0, i32 0, i32 1 ; [#uses=1 type=i32*]
  store i32 0, i32* %145, align 4, !tbaa !4
  br label %149

; <label>:146:                                    ; preds = %132
  %147 = bitcast %"class.std::__ccr1::basic_string"* %2 to %"struct.std::__ccr1::basic_string<char, std::__ccr1::char_traits<char>, std::__ccr1::allocator<char> >::__short"* ; [#uses=1 type=%"struct.std::__ccr1::basic_string<char, std::__ccr1::char_traits<char>, std::__ccr1::allocator<char> >::__short"*]
  %148 = getelementptr inbounds %"struct.std::__ccr1::basic_string<char, std::__ccr1::char_traits<char>, std::__ccr1::allocator<char> >::__short", %"struct.std::__ccr1::basic_string<char, std::__ccr1::char_traits<char>, std::__ccr1::allocator<char> >::__short"* %147, i32 0, i32 1, i32 0 ; [#uses=1 type=i8*]
  store i8 0, i8* %148, align 1, !tbaa !4
  store i8 0, i8* %55, align 4, !tbaa !4
  br label %149

; <label>:149:                                    ; preds = %146, %142
  invoke void @_ZNSt6__ccr112basic_stringIcNS_11char_traitsIcEENS_9allocatorIcEEE7reserveEj(%"class.std::__ccr1::basic_string"* nonnull %2, i32 0) #13
          to label %153 unwind label %150

; <label>:150:                                    ; preds = %149
  %151 = landingpad { i8*, i32 }
          catch i8* null                          ; [#uses=1 type={ i8*, i32 }]
  %152 = extractvalue { i8*, i32 } %151, 0        ; [#uses=1 type=i8*]
  call void @__clang_call_terminate(i8* %152) #15
  unreachable

; <label>:153:                                    ; preds = %149
  store i8 %134, i8* %55, align 4
  %154 = getelementptr inbounds i8, i8* %55, i32 1 ; [#uses=1 type=i8*]
  call void @llvm.memcpy.p0i8.p0i8.i32(i8* nonnull %154, i8* nonnull %109, i32 7, i32 1, i1 false)
  %155 = getelementptr inbounds %"class.std::__ccr1::basic_string", %"class.std::__ccr1::basic_string"* %2, i32 0, i32 0, i32 0, i32 0, i32 0, i32 0, i32 2 ; [#uses=1 type=i8**]
  %156 = bitcast i8** %155 to i32*                ; [#uses=1 type=i32*]
  store i32 %138, i32* %156, align 4
  call void @llvm.memset.p0i8.i32(i8* nonnull %109, i8 0, i32 7, i32 1, i1 false)
  %157 = load i8, i8* %113, align 4, !tbaa !4     ; [#uses=1 type=i8]
  %158 = and i8 %157, 1                           ; [#uses=1 type=i8]
  %159 = icmp eq i8 %158, 0                       ; [#uses=1 type=i1]
  br i1 %159, label %162, label %160

; <label>:160:                                    ; preds = %153
  %161 = load i8*, i8** %121, align 4, !tbaa !4   ; [#uses=1 type=i8*]
  call void @_ZdlPv(i8* %161) #14
  br label %162

; <label>:162:                                    ; preds = %153, %160
  call void @llvm.lifetime.end.p0i8(i64 12, i8* nonnull %113) #12
  %163 = load i8, i8* %110, align 4, !tbaa !4     ; [#uses=1 type=i8]
  %164 = and i8 %163, 1                           ; [#uses=1 type=i8]
  %165 = icmp eq i8 %164, 0                       ; [#uses=1 type=i1]
  br i1 %165, label %169, label %166

; <label>:166:                                    ; preds = %162
  %167 = getelementptr inbounds %"class.std::__ccr1::basic_string", %"class.std::__ccr1::basic_string"* %7, i32 0, i32 0, i32 0, i32 0, i32 0, i32 0, i32 2 ; [#uses=1 type=i8**]
  %168 = load i8*, i8** %167, align 4, !tbaa !4   ; [#uses=1 type=i8*]
  call void @_ZdlPv(i8* %168) #14
  br label %169

; <label>:169:                                    ; preds = %162, %166
  call void @llvm.lifetime.end.p0i8(i64 12, i8* nonnull %110) #12
  call void @llvm.lifetime.end.p0i8(i64 7, i8* nonnull %109)
  br label %193

; <label>:170:                                    ; preds = %104
  %171 = landingpad { i8*, i32 }
          cleanup                                 ; [#uses=2 type={ i8*, i32 }]
  %172 = extractvalue { i8*, i32 } %171, 0        ; [#uses=1 type=i8*]
  %173 = extractvalue { i8*, i32 } %171, 1        ; [#uses=1 type=i32]
  br label %183

; <label>:174:                                    ; preds = %117
  %175 = landingpad { i8*, i32 }
          cleanup                                 ; [#uses=2 type={ i8*, i32 }]
  %176 = extractvalue { i8*, i32 } %175, 0        ; [#uses=2 type=i8*]
  %177 = extractvalue { i8*, i32 } %175, 1        ; [#uses=2 type=i32]
  %178 = load i8, i8* %113, align 4, !tbaa !4     ; [#uses=1 type=i8]
  %179 = and i8 %178, 1                           ; [#uses=1 type=i8]
  %180 = icmp eq i8 %179, 0                       ; [#uses=1 type=i1]
  br i1 %180, label %183, label %181

; <label>:181:                                    ; preds = %174
  %182 = load i8*, i8** %121, align 4, !tbaa !4   ; [#uses=1 type=i8*]
  call void @_ZdlPv(i8* %182) #14
  br label %183

; <label>:183:                                    ; preds = %181, %174, %170
  %184 = phi i32 [ %173, %170 ], [ %177, %174 ], [ %177, %181 ] ; [#uses=1 type=i32]
  %185 = phi i8* [ %172, %170 ], [ %176, %174 ], [ %176, %181 ] ; [#uses=1 type=i8*]
  call void @llvm.lifetime.end.p0i8(i64 12, i8* nonnull %113) #12
  %186 = load i8, i8* %110, align 4, !tbaa !4     ; [#uses=1 type=i8]
  %187 = and i8 %186, 1                           ; [#uses=1 type=i8]
  %188 = icmp eq i8 %187, 0                       ; [#uses=1 type=i1]
  br i1 %188, label %192, label %189

; <label>:189:                                    ; preds = %183
  %190 = getelementptr inbounds %"class.std::__ccr1::basic_string", %"class.std::__ccr1::basic_string"* %7, i32 0, i32 0, i32 0, i32 0, i32 0, i32 0, i32 2 ; [#uses=1 type=i8**]
  %191 = load i8*, i8** %190, align 4, !tbaa !4   ; [#uses=1 type=i8*]
  call void @_ZdlPv(i8* %191) #14
  br label %192

; <label>:192:                                    ; preds = %183, %189
  call void @llvm.lifetime.end.p0i8(i64 12, i8* nonnull %110) #12
  call void @llvm.lifetime.end.p0i8(i64 7, i8* nonnull %109)
  br label %750

; <label>:193:                                    ; preds = %85, %77, %69, %90, %169
  %194 = phi i64 [ %108, %169 ], [ 0, %90 ], [ 0, %69 ], [ 0, %77 ], [ 0, %85 ] ; [#uses=2 type=i64]
  %195 = bitcast %"class.std::__ccr1::basic_string"* %3 to i8* ; [#uses=5 type=i8*]
  %196 = load i8, i8* %195, align 4, !tbaa !4     ; [#uses=3 type=i8]
  %197 = and i8 %196, 1                           ; [#uses=1 type=i8]
  %198 = icmp eq i8 %197, 0                       ; [#uses=2 type=i1]
  br i1 %198, label %204, label %199

; <label>:199:                                    ; preds = %193
  %200 = getelementptr inbounds %"class.std::__ccr1::basic_string", %"class.std::__ccr1::basic_string"* %3, i32 0, i32 0, i32 0, i32 0, i32 0, i32 0, i32 2 ; [#uses=1 type=i8**]
  %201 = load i8*, i8** %200, align 4, !tbaa !4   ; [#uses=1 type=i8*]
  %202 = getelementptr inbounds %"class.std::__ccr1::basic_string", %"class.std::__ccr1::basic_string"* %3, i32 0, i32 0, i32 0, i32 0, i32 0, i32 0, i32 1 ; [#uses=1 type=i32*]
  %203 = load i32, i32* %202, align 4, !tbaa !4   ; [#uses=1 type=i32]
  br label %209

; <label>:204:                                    ; preds = %193
